Certificate:
    Data:
        Version: 3 (0x2)
        Serial Number: 40 (0x28)
        Signature Algorithm: sha256WithRSAEncryption
        Issuer: C=FR, ST=France, L=Grenoble, O=Belledonne Communications, CN=Jehan Monnier
        Validity
            Not Before: Dec 14 10:51:52 2020 GMT
            Not After : Dec 12 10:51:52 2030 GMT
        Subject: C=FR, ST=France, L=Grenoble, O=Belledonne Communications, CN=Jehan Monnier
        Subject Public Key Info:
            Public Key Algorithm: rsaEncryption
                RSA Public-Key: (2048 bit)
                Modulus:
                    00:b2:65:9c:28:8b:0e:14:2a:d3:ad:da:39:cf:be:
                    35:b3:a0:87:7d:d0:a7:bb:82:10:2a:62:c7:8b:fb:
                    c4:77:96:96:5c:9c:ff:61:1e:d6:c4:8f:b1:e0:21:
                    51:a7:86:4c:d0:71:37:90:a8:56:b9:84:44:84:a9:
                    51:80:af:b9:b0:88:40:4f:30:73:21:47:1a:9d:ae:
                    af:39:46:2a:34:10:34:89:d7:05:e6:91:7a:65:f3:
                    12:8e:0b:84:f7:6e:f3:23:a8:58:a2:6d:32:72:dc:
                    e2:07:af:d0:89:d4:1f:b6:29:4c:64:f9:ed:99:a1:
                    5b:59:7b:cd:41:1e:c2:92:61:08:d7:a4:61:d0:3c:
                    21:12:93:55:9d:05:a6:85:08:02:b6:dd:40:20:ec:
                    8a:2e:ec:b7:08:da:ec:81:a7:1b:78:c3:2c:30:33:
                    94:eb:7d:1f:6a:0b:b4:05:c8:ce:90:1e:b4:c3:41:
                    86:8d:f0:cc:6f:b0:e6:05:c8:81:d8:a4:a9:1c:a4:
                    71:7e:9f:56:85:da:fb:33:40:93:39:2a:60:89:b9:
                    57:6c:96:72:20:a9:74:94:27:a7:6e:e9:dc:e7:32:
                    d9:92:7e:e7:31:05:b5:d8:fd:ae:9b:88:17:04:0c:
                    e1:5e:73:96:f0:24:8d:1f:77:93:ed:6f:02:db:44:
                    08:ef
                Exponent: 65537 (0x10001)
        X509v3 extensions:
            X509v3 Basic Constraints: 
                CA:FALSE
            Netscape Comment: 
                OpenSSL Generated Certificate
            X509v3 Subject Key Identifier: 
                3C:61:E3:E9:BE:E4:BE:B7:4C:95:44:78:7F:99:3B:FF:B0:42:6E:72
            X509v3 Authority Key Identifier: 
                keyid:8D:AC:0E:44:2C:CD:22:AC:F8:17:0E:DE:8B:63:79:3D:F7:C3:C1:0E

            X509v3 Subject Alternative Name: 
                DNS:altname.linphone.org, DNS:*.wildcard2.linphone.org
    Signature Algorithm: sha256WithRSAEncryption
         4e:d7:c8:ac:65:3b:d2:c8:a4:1a:b1:e0:47:e5:87:7a:d6:ca:
         5f:76:c0:a4:ec:ce:d4:02:fd:17:82:a3:86:48:96:02:87:c4:
         49:7e:15:ab:19:f7:9c:47:d8:62:72:c8:85:ae:cc:cf:39:82:
         63:70:ce:a4:e6:0f:f9:2e:9c:c6:2e:a6:7e:37:ea:cc:4f:32:
         fb:b0:8f:1b:08:14:ab:b5:4b:01:35:6f:ff:b5:00:f2:e4:7b:
         40:97:22:5f:d3:8e:f0:8d:66:6f:e8:d9:e4:82:a8:c9:16:9a:
         f0:68:e2:52:22:d5:bc:db:18:4e:e8:3e:22:fa:86:71:3b:cf:
         44:91:96:eb:6e:2f:d0:9d:3c:af:f1:b6:16:48:85:f6:8b:af:
         cb:2c:27:2f:ed:50:e8:9b:f4:c7:f3:bd:81:2d:63:0b:f1:6f:
         0e:48:15:be:f2:9b:2a:80:1d:c9:fa:1c:36:5b:21:66:bc:f9:
         3a:24:75:31:4a:f3:0a:85:1d:0c:6d:e5:26:27:8d:da:f1:ba:
         59:94:46:29:85:be:13:63:62:27:38:9d:36:65:bc:4d:03:30:
         0c:c9:5a:f6:4a:85:c1:5e:b6:3f:cc:c5:24:6f:a5:c3:ad:86:
         b1:45:60:61:78:ae:a4:8e:b4:7b:3c:98:83:59:c0:d0:43:c4:
         c1:91:00:6a:75:90:0d:c5:6c:e1:b5:eb:5e:42:18:27:c9:20:
         3a:5d:33:97:f8:10:cb:b9:bd:12:d4:c9:36:ef:d2:93:4b:91:
         48:9d:6b:16:8a:85:66:c0:7e:5d:89:2f:aa:95:fc:9d:42:39:
         42:a1:dd:5d:d8:8d:62:40:7f:6f:81:7e:82:30:ee:99:cb:b2:
         8e:b4:d8:7d:0e:3d:05:25:63:e0:56:89:16:19:f6:8c:aa:a6:
         8f:c8:21:a2:3c:10:67:86:8b:de:4b:aa:07:2d:13:35:51:73:
         fe:94:dc:57:79:c4:14:78:59:23:f7:9a:56:af:6b:4d:19:93:
         f2:27:cf:25:82:b5
-----BEGIN CERTIFICATE-----
MIIEjTCCAvWgAwIBAgIBKDANBgkqhkiG9w0BAQsFADBtMQswCQYDVQQGEwJGUjEP
MA0GA1UECAwGRnJhbmNlMREwDwYDVQQHDAhHcmVub2JsZTEiMCAGA1UECgwZQmVs
bGVkb25uZSBDb21tdW5pY2F0aW9uczEWMBQGA1UEAwwNSmVoYW4gTW9ubmllcjAe
Fw0yMDEyMTQxMDUxNTJaFw0zMDEyMTIxMDUxNTJaMG0xCzAJBgNVBAYTAkZSMQ8w
DQYDVQQIDAZGcmFuY2UxETAPBgNVBAcMCEdyZW5vYmxlMSIwIAYDVQQKDBlCZWxs
ZWRvbm5lIENvbW11bmljYXRpb25zMRYwFAYDVQQDDA1KZWhhbiBNb25uaWVyMIIB
IjANBgkqhkiG9w0BAQEFAAOCAQ8AMIIBCgKCAQEAsmWcKIsOFCrTrdo5z741s6CH
fdCnu4IQKmLHi/vEd5aWXJz/YR7WxI+x4CFRp4ZM0HE3kKhWuYREhKlRgK+5sIhA
TzBzIUcana6vOUYqNBA0idcF5pF6ZfMSjguE927zI6hYom0yctziB6/QidQftilM
ZPntmaFbWXvNQR7CkmEI16Rh0DwhEpNVnQWmhQgCtt1AIOyKLuy3CNrsgacbeMMs
MDOU630fagu0BcjOkB60w0GGjfDMb7DmBciB2KSpHKRxfp9Whdr7M0CTOSpgiblX
bJZyIKl0lCenbunc5zLZkn7nMQW12P2um4gXBAzhXnOW8CSNH3eT7W8C20QI7wID
AQABo4G3MIG0MAkGA1UdEwQCMAAwLAYJYIZIAYb4QgENBB8WHU9wZW5TU0wgR2Vu
ZXJhdGVkIENlcnRpZmljYXRlMB0GA1UdDgQWBBQ8YePpvuS+t0yVRHh/mTv/sEJu
cjAfBgNVHSMEGDAWgBSNrA5ELM0irPgXDt6LY3k998PBDjA5BgNVHREEMjAwghRh
bHRuYW1lLmxpbnBob25lLm9yZ4IYKi53aWxkY2FyZDIubGlucGhvbmUub3JnMA0G
CSqGSIb3DQEBCwUAA4IBgQBO18isZTvSyKQaseBH5Yd61spfdsCk7M7UAv0XgqOG
SJYCh8RJfhWrGfecR9hicsiFrszPOYJjcM6k5g/5LpzGLqZ+N+rMTzL7sI8bCBSr
tUsBNW//tQDy5HtAlyJf047wjWZv6NnkgqjJFprwaOJSItW82xhO6D4i+oZxO89E
kZbrbi/QnTyv8bYWSIX2i6/LLCcv7VDom/TH872BLWML8W8OSBW+8psqgB3J+hw2
WyFmvPk6JHUxSvMKhR0MbeUmJ43a8bpZlEYphb4TY2InOJ02ZbxNAzAMyVr2SoXB
XrY/zMUkb6XDrYaxRWBheK6kjrR7PJiDWcDQQ8TBkQBqdZANxWzhteteQhgnySA6
XTOX+BDLub0S1Mk279KTS5FInWsWioVmwH5diS+qlfydQjlCod1d2I1iQH9vgX6C
MO6Zy7KOtNh9Dj0FJWPgVokWGfaMqqaPyCGiPBBnhoveS6oHLRM1UXP+lNxXecQU
eFkj95pWr2tNGZPyJ88lgrU=
-----END CERTIFICATE-----
-----BEGIN PRIVATE KEY-----
MIIEvgIBADANBgkqhkiG9w0BAQEFAASCBKgwggSkAgEAAoIBAQCyZZwoiw4UKtOt
2jnPvjWzoId90Ke7ghAqYseL+8R3lpZcnP9hHtbEj7HgIVGnhkzQcTeQqFa5hESE
qVGAr7mwiEBPMHMhRxqdrq85Rio0EDSJ1wXmkXpl8xKOC4T3bvMjqFiibTJy3OIH
r9CJ1B+2KUxk+e2ZoVtZe81BHsKSYQjXpGHQPCESk1WdBaaFCAK23UAg7Iou7LcI
2uyBpxt4wywwM5TrfR9qC7QFyM6QHrTDQYaN8MxvsOYFyIHYpKkcpHF+n1aF2vsz
QJM5KmCJuVdslnIgqXSUJ6du6dznMtmSfucxBbXY/a6biBcEDOFec5bwJI0fd5Pt
bwLbRAjvAgMBAAECggEAOSW3qn0xG2DEwpJ/pn7mMQ6hmLo4oSZ/CzTte3hBbZW9
wRlB7di1L+5gKs5BnAq3nKZICH0EmxU15dFfnHuuXlCnWTbKCsT+T7jfxNcnOdpf
GjDZYQ0FSpddQEeMZr8SAEAzdITKfmUnuxKlGSHsrqv4Hvi5FlfMLZQtIkk6Ry1p
UBmVCtJIiMXnrs69ynFDftoBJqx9fFNLujISjjS2bPLMJ+m/IxU8HDIDo4GrAxYf
xahwZazxhDqkbc7+37EE8dr+B391na40TDoTCxiRJSRErpTqCUFbM6xMJ8aI2Zgh
O92kNdINXhEWcXkhSVHuCR02dd25ViZlyksKMrYx0QKBgQDhCAIcxm9B9xRsFxuN
LkFM/NYhtZTVuyMkyiov8J7huOimgBOhoNiNzt9JE3Xfpf7rwXwh5GWYQEbySget
F9Abc/uXq94yf/BWvTy8WSWqOuS3I2ihhGiE1kqnLWiaB5uXXn9sdSGIQysP5Wd1
vW2E2oBNqvCA+25deH3H6//HFQKBgQDK8qTdgbMTswM2CzBzadvtmRX4ldro8xUy
k8hDA4SYpZ8mB6d8UTLblOd/4JP4Mngh1JPik2IYfZmAIRFTyBMmPk37nnLXh1hv
5ldaPRAlqq7A+s0VuUIgPJbKTxShOou8xuAwVT1G7D97PpuC7or7HyoK0vfRqPpP
+4d0LRXQ8wKBgQDdTkbljbF1Kk0HUGJkIg1ObYkZdb59w6D4WWnL49QdIQCMXoDv
/4N5Uu38rArMfC+MI6i0nC3d4bjkJzINZNHhbdsMepX3DCOM6maExRdppqmwAj6w
OcugeC7K4rlwYfL+loyyWS81FvmOlIl/HWBLu6daurXz41HS0uDAcLQHUQKBgB6M
gcaaBGO9uYkEDCoDUEiml4kQvZ/9Hz66whVcTTRREfC+jDaJXndxJZu5KWzd4/lr
r0sW1lhLZ7TCxYHwBvnlvQVYJ39L70MA0DtUH78bvyxrVD2l4k9J74TKfJd8YZZr
9UkxO4UWgMPDe9Mspxz/5us0MHuNzQgHG6+gLb2DAoGBAKR1TFj0VxIfX4WudI6K
kPUPcJU7tKHa75yly09pcFsLIHm0p6ReSgON+H1nDDPqzCX1rG7BL0mNnEyYHNGE
yk1BUzaw5rPKsPZlB6k1OQLQxPdm7I5tFRoUzSRNX97HyZ0eUTGHlEcChTDbHkKc
iq1jRbc0gD/K1ehJXgOQYCy9
-----END PRIVATE KEY-----
