Certificate:
    Data:
        Version: 3 (0x2)
        Serial Number: 44 (0x2c)
        Signature Algorithm: sha256WithRSAEncryption
        Issuer: C=FR, ST=France, L=Grenoble, O=Belledonne Communications, CN=Jehan Monnier
        Validity
            Not Before: Dec 14 21:04:09 2020 GMT
            Not After : Dec 12 21:04:09 2030 GMT
        Subject: C=FR, ST=France, L=Grenoble, O=Belledonne Communications, CN=sip:sip.example.org
        Subject Public Key Info:
            Public Key Algorithm: rsaEncryption
                RSA Public-Key: (2048 bit)
                Modulus:
                    00:b2:ae:7e:ab:9a:ee:b4:ed:70:07:71:e1:0e:4a:
                    02:30:dc:d4:1a:11:cd:fd:65:0f:21:04:df:5c:a6:
                    71:87:eb:1b:90:5b:6d:58:63:f0:5b:b1:f7:02:33:
                    07:23:f6:eb:29:7e:a7:67:60:fa:1c:3c:e2:e3:d1:
                    01:f0:a6:75:e5:60:79:83:81:fa:1c:1b:6a:3d:25:
                    4a:30:3b:fb:4d:cd:31:65:77:b0:08:fa:a3:04:26:
                    ba:75:5f:34:11:83:28:58:ec:84:83:54:91:ea:34:
                    62:ae:bf:63:44:eb:c0:6d:c4:06:20:73:08:69:04:
                    25:70:2e:bc:df:84:8a:9a:3e:87:55:f5:05:21:fb:
                    b2:ec:17:ad:04:98:4d:cd:aa:39:7e:10:6a:dd:8e:
                    fd:12:91:d2:ba:7d:29:07:ba:99:15:9a:3c:1d:0c:
                    de:a8:88:78:34:68:8a:0f:07:96:e3:c7:eb:f0:80:
                    af:9a:f4:84:40:e4:81:c2:33:6b:46:54:ba:2d:88:
                    f8:53:2b:ab:45:0c:b0:a3:34:ee:d0:d9:5a:11:ed:
                    bd:1b:ed:44:94:bb:46:51:58:ea:05:2e:fd:d6:a1:
                    94:63:49:8b:91:f9:ce:aa:9e:81:de:9f:e4:8b:f4:
                    7d:e4:ac:da:41:16:d4:58:90:d3:9e:cb:37:da:78:
                    8f:a9
                Exponent: 65537 (0x10001)
        X509v3 extensions:
            X509v3 Basic Constraints: 
                CA:FALSE
            Netscape Comment: 
                OpenSSL Generated Certificate
            X509v3 Subject Key Identifier: 
                00:56:1D:18:A7:2E:22:97:0B:32:9D:EF:DA:A9:8C:0D:FD:8B:00:37
            X509v3 Authority Key Identifier: 
                keyid:8D:AC:0E:44:2C:CD:22:AC:F8:17:0E:DE:8B:63:79:3D:F7:C3:C1:0E

            X509v3 Subject Alternative Name: 
                URI:sip:sip.example.org
    Signature Algorithm: sha256WithRSAEncryption
         4c:14:9c:8b:08:24:8b:74:aa:72:63:84:16:0a:0e:35:d3:5e:
         c7:ee:c6:4f:39:a9:ce:96:a7:67:4d:34:c9:f7:b4:8b:b0:e1:
         49:d8:68:24:08:26:82:58:dd:20:0a:c3:10:aa:45:75:c8:99:
         74:30:8d:cb:9d:f7:75:91:9b:5e:5c:de:3a:92:b6:60:23:7b:
         e0:39:ba:b7:23:95:ea:9b:b3:a4:a2:8e:10:f4:3b:91:8d:68:
         8e:b2:c0:04:c0:0d:88:2a:1e:b7:b0:12:91:7a:70:e7:42:a3:
         31:e1:4e:e2:06:f7:4a:ca:84:ba:8d:58:e2:1a:d3:24:14:e6:
         08:17:93:f4:03:67:dc:7e:42:f5:88:03:41:4c:83:e5:e8:f9:
         00:1b:85:30:a3:99:7b:8b:b8:9c:41:e3:d1:c2:f8:45:8f:5e:
         15:b6:4f:9c:ec:33:ec:ef:4b:b6:05:af:61:b8:fd:96:68:44:
         df:df:00:62:9a:1f:1e:20:b4:51:8f:95:ab:3c:a5:9b:b3:85:
         3d:d8:1b:5a:25:52:7b:29:50:2a:4b:c2:8f:b4:8f:57:74:4e:
         d3:bd:c8:f8:d1:e1:66:b2:46:dc:3d:da:7e:f5:b1:92:a1:e1:
         94:06:de:43:35:01:72:e9:7a:7d:29:22:50:6a:6c:19:95:b4:
         8c:8a:26:51:d7:06:8c:ac:d4:e0:cc:0d:a8:b0:e0:82:d7:61:
         a1:2b:93:46:3e:cf:9f:40:ef:7a:48:4e:a0:49:9e:8b:04:0c:
         f3:2a:48:aa:0f:b1:f7:7c:ba:b3:df:e5:b2:5b:9f:b3:bd:34:
         3a:e9:71:00:61:c3:8a:b3:87:e5:44:85:aa:49:5a:ba:23:c2:
         49:79:37:c3:65:ff:6c:20:fa:1b:f8:e7:9d:5a:d5:d0:57:2d:
         f5:9f:29:03:53:57:ff:a9:75:18:54:80:db:98:81:70:94:ff:
         d5:70:33:42:b6:ab:37:e0:c9:09:72:23:ce:9b:21:aa:db:c6:
         d0:ae:15:a8:9e:16
-----BEGIN CERTIFICATE-----
MIIEeDCCAuCgAwIBAgIBLDANBgkqhkiG9w0BAQsFADBtMQswCQYDVQQGEwJGUjEP
MA0GA1UECAwGRnJhbmNlMREwDwYDVQQHDAhHcmVub2JsZTEiMCAGA1UECgwZQmVs
bGVkb25uZSBDb21tdW5pY2F0aW9uczEWMBQGA1UEAwwNSmVoYW4gTW9ubmllcjAe
Fw0yMDEyMTQyMTA0MDlaFw0zMDEyMTIyMTA0MDlaMHMxCzAJBgNVBAYTAkZSMQ8w
DQYDVQQIDAZGcmFuY2UxETAPBgNVBAcMCEdyZW5vYmxlMSIwIAYDVQQKDBlCZWxs
ZWRvbm5lIENvbW11bmljYXRpb25zMRwwGgYDVQQDDBNzaXA6c2lwLmV4YW1wbGUu
b3JnMIIBIjANBgkqhkiG9w0BAQEFAAOCAQ8AMIIBCgKCAQEAsq5+q5rutO1wB3Hh
DkoCMNzUGhHN/WUPIQTfXKZxh+sbkFttWGPwW7H3AjMHI/brKX6nZ2D6HDzi49EB
8KZ15WB5g4H6HBtqPSVKMDv7Tc0xZXewCPqjBCa6dV80EYMoWOyEg1SR6jRirr9j
ROvAbcQGIHMIaQQlcC6834SKmj6HVfUFIfuy7BetBJhNzao5fhBq3Y79EpHSun0p
B7qZFZo8HQzeqIh4NGiKDweW48fr8ICvmvSEQOSBwjNrRlS6LYj4UyurRQywozTu
0NlaEe29G+1ElLtGUVjqBS791qGUY0mLkfnOqp6B3p/ki/R95KzaQRbUWJDTnss3
2niPqQIDAQABo4GcMIGZMAkGA1UdEwQCMAAwLAYJYIZIAYb4QgENBB8WHU9wZW5T
U0wgR2VuZXJhdGVkIENlcnRpZmljYXRlMB0GA1UdDgQWBBQAVh0Ypy4ilwsyne/a
qYwN/YsANzAfBgNVHSMEGDAWgBSNrA5ELM0irPgXDt6LY3k998PBDjAeBgNVHREE
FzAVhhNzaXA6c2lwLmV4YW1wbGUub3JnMA0GCSqGSIb3DQEBCwUAA4IBgQBMFJyL
CCSLdKpyY4QWCg41017H7sZPOanOlqdnTTTJ97SLsOFJ2GgkCCaCWN0gCsMQqkV1
yJl0MI3Lnfd1kZteXN46krZgI3vgObq3I5Xqm7Okoo4Q9DuRjWiOssAEwA2IKh63
sBKRenDnQqMx4U7iBvdKyoS6jVjiGtMkFOYIF5P0A2fcfkL1iANBTIPl6PkAG4Uw
o5l7i7icQePRwvhFj14Vtk+c7DPs70u2Ba9huP2WaETf3wBimh8eILRRj5WrPKWb
s4U92BtaJVJ7KVAqS8KPtI9XdE7Tvcj40eFmskbcPdp+9bGSoeGUBt5DNQFy6Xp9
KSJQamwZlbSMiiZR1waMrNTgzA2osOCC12GhK5NGPs+fQO96SE6gSZ6LBAzzKkiq
D7H3fLqz3+WyW5+zvTQ66XEAYcOKs4flRIWqSVq6I8JJeTfDZf9sIPob+OedWtXQ
Vy31nykDU1f/qXUYVIDbmIFwlP/VcDNCtqs34MkJciPOmyGq28bQrhWonhY=
-----END CERTIFICATE-----
