Certificate:
    Data:
        Version: 3 (0x2)
        Serial Number: 43 (0x2b)
        Signature Algorithm: sha256WithRSAEncryption
        Issuer: C=FR, ST=France, L=Grenoble, O=Belledonne Communications, CN=Jehan Monnier
        Validity
            Not Before: Dec 14 20:40:14 2020 GMT
            Not After : Dec 12 20:40:14 2030 GMT
        Subject: C=FR, ST=Lorien, L=Grenoble, O=Elfes, CN=sip:galadrielle@sip.example.org
        Subject Public Key Info:
            Public Key Algorithm: rsaEncryption
                RSA Public-Key: (2048 bit)
                Modulus:
                    00:b6:39:a1:2b:24:80:5b:dc:7c:de:6b:2a:17:7b:
                    6a:98:f9:56:bb:b3:6d:6c:79:3d:70:cf:ba:4a:7c:
                    48:79:23:35:6a:a2:7f:70:a9:95:ca:e5:47:45:38:
                    12:66:95:f6:6f:75:a9:61:0c:55:34:cd:11:b3:5c:
                    e4:85:72:92:ae:66:fb:37:1d:f1:b8:88:03:7a:8e:
                    7a:f9:b9:ce:aa:67:54:61:97:b5:d5:11:27:6c:92:
                    b9:0c:5a:24:b0:68:d8:53:9a:bd:e8:f2:0f:36:5d:
                    b5:09:83:8f:1b:05:41:42:dc:58:a6:56:1a:5a:ab:
                    5f:44:a8:2c:b2:2c:b4:06:98:cd:d6:17:e1:65:3e:
                    10:38:33:3e:6b:40:d8:f7:8d:af:a0:fe:20:cc:6b:
                    8a:ba:90:cf:e6:a2:9e:39:1c:92:3b:24:08:f2:bc:
                    98:dc:89:3b:cd:9e:60:e1:18:ce:2a:83:48:2a:4e:
                    45:6a:42:35:c9:5d:9b:38:cf:ed:1d:93:fa:50:6a:
                    48:34:8b:78:58:2e:8d:55:ba:a2:83:64:c4:23:1b:
                    25:d6:f9:99:15:46:75:c7:9c:7d:72:51:08:8a:49:
                    c9:f0:e2:d7:12:0a:af:4a:9c:89:72:54:4b:df:2c:
                    34:ec:15:04:e9:ef:56:29:2a:99:f7:a5:a8:14:ab:
                    65:69
                Exponent: 65537 (0x10001)
        X509v3 extensions:
            X509v3 Basic Constraints: 
                CA:FALSE
            Netscape Comment: 
                OpenSSL Generated Certificate
            X509v3 Subject Key Identifier: 
                FA:A0:D4:98:A3:CF:89:9A:A5:B8:61:28:36:4C:C5:80:76:5C:7A:7C
            X509v3 Authority Key Identifier: 
                keyid:8D:AC:0E:44:2C:CD:22:AC:F8:17:0E:DE:8B:63:79:3D:F7:C3:C1:0E

            X509v3 Subject Alternative Name: 
                URI:sip:galadrielle@sip.example.org
    Signature Algorithm: sha256WithRSAEncryption
         4d:f4:8b:29:b9:2c:f4:6a:fa:e4:bc:7e:a3:ce:aa:e2:ed:a2:
         2f:6e:ef:3b:54:5e:8b:dc:b0:c4:d8:0c:78:72:62:3c:fe:2f:
         c2:11:b5:9a:ed:97:1e:29:18:bb:d9:28:b1:2b:7b:ff:2b:43:
         08:68:85:92:fc:08:11:09:29:5b:c1:85:8a:2d:e9:17:69:a5:
         23:46:e0:b3:db:99:e0:eb:59:b2:2f:84:31:12:ef:fd:2e:bc:
         ce:70:66:44:b2:b0:07:49:14:ad:02:1d:5d:80:80:52:d1:2e:
         ec:70:67:e4:7f:51:81:3f:6f:75:2c:6a:bf:92:d3:86:44:71:
         94:53:fc:16:45:be:2e:c6:a3:e3:f4:5c:9f:f9:59:25:b4:56:
         eb:b8:e0:cd:41:a2:ee:de:74:66:88:4b:04:2b:ce:b8:fd:46:
         0b:a3:2f:b7:68:dc:89:d9:0d:46:ca:03:e8:ad:bf:c3:7b:56:
         9e:df:36:2d:a8:ba:43:d6:4b:b9:3b:90:8e:34:2d:4a:9f:07:
         c4:f4:6c:65:8f:36:40:da:0c:a1:1e:f1:f2:8a:9b:2d:41:3f:
         c5:13:2c:ca:22:42:51:8d:6d:6a:65:20:91:a7:ac:0e:14:97:
         b5:6f:39:5d:cd:5b:7e:3a:0c:ca:5f:66:56:57:53:74:06:92:
         83:eb:c9:0a:56:88:ef:b0:ea:8e:b6:6f:e0:0e:b5:83:4d:6b:
         21:3e:39:3a:35:9e:f5:b5:a9:2a:45:57:a1:52:18:db:3e:94:
         c7:2f:f5:3b:a5:06:94:c5:9a:25:1e:09:78:59:3d:f6:8a:04:
         1f:0b:a3:5c:5a:41:56:cd:dd:fc:75:b0:a3:06:66:9e:fa:c7:
         8f:c4:ad:7c:dc:2a:0e:db:2a:27:36:11:7a:3c:82:84:b4:a3:
         c7:06:ec:42:ee:76:f4:05:34:ab:b0:7c:73:da:00:e2:10:8e:
         76:f4:8a:50:b6:89:67:15:b5:28:59:b1:e2:b1:d5:74:06:4d:
         f5:46:37:a6:e1:c5
-----BEGIN CERTIFICATE-----
MIIEfDCCAuSgAwIBAgIBKzANBgkqhkiG9w0BAQsFADBtMQswCQYDVQQGEwJGUjEP
MA0GA1UECAwGRnJhbmNlMREwDwYDVQQHDAhHcmVub2JsZTEiMCAGA1UECgwZQmVs
bGVkb25uZSBDb21tdW5pY2F0aW9uczEWMBQGA1UEAwwNSmVoYW4gTW9ubmllcjAe
Fw0yMDEyMTQyMDQwMTRaFw0zMDEyMTIyMDQwMTRaMGsxCzAJBgNVBAYTAkZSMQ8w
DQYDVQQIDAZMb3JpZW4xETAPBgNVBAcMCEdyZW5vYmxlMQ4wDAYDVQQKDAVFbGZl
czEoMCYGA1UEAwwfc2lwOmdhbGFkcmllbGxlQHNpcC5leGFtcGxlLm9yZzCCASIw
DQYJKoZIhvcNAQEBBQADggEPADCCAQoCggEBALY5oSskgFvcfN5rKhd7apj5Vruz
bWx5PXDPukp8SHkjNWqif3CplcrlR0U4EmaV9m91qWEMVTTNEbNc5IVykq5m+zcd
8biIA3qOevm5zqpnVGGXtdURJ2ySuQxaJLBo2FOavejyDzZdtQmDjxsFQULcWKZW
GlqrX0SoLLIstAaYzdYX4WU+EDgzPmtA2PeNr6D+IMxrirqQz+ainjkckjskCPK8
mNyJO82eYOEYziqDSCpORWpCNcldmzjP7R2T+lBqSDSLeFgujVW6ooNkxCMbJdb5
mRVGdcecfXJRCIpJyfDi1xIKr0qciXJUS98sNOwVBOnvVikqmfelqBSrZWkCAwEA
AaOBqDCBpTAJBgNVHRMEAjAAMCwGCWCGSAGG+EIBDQQfFh1PcGVuU1NMIEdlbmVy
YXRlZCBDZXJ0aWZpY2F0ZTAdBgNVHQ4EFgQU+qDUmKPPiZqluGEoNkzFgHZcenww
HwYDVR0jBBgwFoAUjawORCzNIqz4Fw7ei2N5PffDwQ4wKgYDVR0RBCMwIYYfc2lw
OmdhbGFkcmllbGxlQHNpcC5leGFtcGxlLm9yZzANBgkqhkiG9w0BAQsFAAOCAYEA
TfSLKbks9Gr65Lx+o86q4u2iL27vO1Rei9ywxNgMeHJiPP4vwhG1mu2XHikYu9ko
sSt7/ytDCGiFkvwIEQkpW8GFii3pF2mlI0bgs9uZ4OtZsi+EMRLv/S68znBmRLKw
B0kUrQIdXYCAUtEu7HBn5H9RgT9vdSxqv5LThkRxlFP8FkW+Lsaj4/Rcn/lZJbRW
67jgzUGi7t50ZohLBCvOuP1GC6Mvt2jcidkNRsoD6K2/w3tWnt82Lai6Q9ZLuTuQ
jjQtSp8HxPRsZY82QNoMoR7x8oqbLUE/xRMsyiJCUY1tamUgkaesDhSXtW85Xc1b
fjoMyl9mVldTdAaSg+vJClaI77DqjrZv4A61g01rIT45OjWe9bWpKkVXoVIY2z6U
xy/1O6UGlMWaJR4JeFk99ooEHwujXFpBVs3d/HWwowZmnvrHj8StfNwqDtsqJzYR
ejyChLSjxwbsQu529AU0q7B8c9oA4hCOdvSKULaJZxW1KFmx4rHVdAZN9UY3puHF
-----END CERTIFICATE-----
