Certificate:
    Data:
        Version: 3 (0x2)
        Serial Number: 45 (0x2d)
        Signature Algorithm: sha256WithRSAEncryption
        Issuer: C=FR, ST=France, L=Grenoble, O=Belledonne Communications, CN=Jehan Monnier
        Validity
            Not Before: Dec 14 21:16:09 2020 GMT
            Not After : Dec 12 21:16:09 2030 GMT
        Subject: C=FR, ST=France, L=Grenoble, O=Belledonne Communications, CN=sip:gandalf@sip.example.org
        Subject Public Key Info:
            Public Key Algorithm: rsaEncryption
                RSA Public-Key: (2048 bit)
                Modulus:
                    00:f2:0a:56:e8:85:bc:4b:6f:08:20:2e:ee:f4:cc:
                    a6:55:17:65:b2:f5:77:a3:fb:23:11:3a:58:32:f6:
                    bf:e2:8a:77:dd:37:fc:57:34:b7:c8:31:e2:e6:0b:
                    4c:b0:29:97:8c:4d:c2:bf:e6:ef:40:18:97:97:72:
                    b2:a5:79:4d:97:ba:7c:50:52:06:60:5d:3c:12:ae:
                    9b:5a:25:b8:7b:5b:c0:80:00:33:8c:7b:02:b0:02:
                    d6:ed:a3:01:29:46:73:a7:fa:0b:94:cf:d0:d3:1d:
                    15:f5:be:7c:11:cb:ca:9d:22:5c:57:7d:40:52:f2:
                    65:67:8b:68:56:bd:12:42:04:ef:18:de:b2:0d:47:
                    71:2e:e7:8e:af:31:6d:d7:b9:6a:1d:88:22:cb:60:
                    42:a5:98:a7:88:2e:8b:a7:0a:96:ab:ae:a0:52:f7:
                    02:15:f3:26:08:e5:a8:b7:44:f1:ab:44:ef:35:02:
                    15:b7:50:22:e2:9a:e3:36:b8:85:fb:e2:16:51:97:
                    fb:22:6d:4b:fd:63:11:a4:a6:ee:e3:24:df:a2:93:
                    a2:c0:a8:da:ee:9b:95:14:41:fa:59:93:1a:12:77:
                    da:ff:5b:9d:53:8d:87:1f:f6:dc:0d:ee:ee:81:c7:
                    ca:1b:e0:42:b4:21:30:7b:c4:fa:c8:5a:92:c8:e3:
                    9e:4d
                Exponent: 65537 (0x10001)
        X509v3 extensions:
            X509v3 Basic Constraints: 
                CA:FALSE
            Netscape Comment: 
                OpenSSL Generated Certificate
            X509v3 Subject Key Identifier: 
                46:19:6A:16:04:43:9A:20:C0:ED:FC:7A:D6:5E:41:BA:7D:DF:7C:67
            X509v3 Authority Key Identifier: 
                keyid:8D:AC:0E:44:2C:CD:22:AC:F8:17:0E:DE:8B:63:79:3D:F7:C3:C1:0E

            X509v3 Subject Alternative Name: 
                URI:sip:gandalf@sip.linphone.org, URI:sip:gandalf@sip.example.org
    Signature Algorithm: sha256WithRSAEncryption
         92:f3:5b:45:93:b3:aa:5a:7e:e4:24:f9:90:66:85:cb:02:25:
         70:7b:99:23:6a:bd:38:2e:e7:1b:b3:47:2a:52:5e:49:98:0c:
         72:ef:2e:35:51:11:96:de:02:e3:33:8e:ff:54:c7:15:df:a4:
         ed:48:a0:f4:f3:c2:a8:83:8c:47:32:51:0c:3e:c3:9c:4d:cd:
         f6:cb:d8:8c:50:e2:5d:86:0a:8a:f2:e9:b7:d4:02:3f:c8:69:
         e9:51:ef:d3:43:33:ee:3a:e1:2d:54:43:35:a7:58:a0:0a:6f:
         15:a3:54:3e:aa:84:7d:a8:24:ef:54:ff:3f:bb:a9:9c:4c:c9:
         eb:c8:80:ec:be:8e:38:b0:87:06:33:a2:5a:e0:76:9e:c8:ca:
         f0:58:6f:43:40:3e:a1:a2:00:29:1a:56:99:0b:9f:be:df:11:
         bc:9a:79:11:41:38:ca:36:d1:2a:fe:33:e1:63:f5:40:2c:26:
         f4:22:d2:ff:c6:d4:29:1d:f6:01:dc:78:49:84:6a:4b:45:f6:
         a6:9e:00:5b:63:d1:45:d8:27:f5:b1:70:20:93:32:e8:20:45:
         71:06:b7:45:2b:1a:c2:2e:92:64:6c:f4:84:be:dc:13:a7:fd:
         cb:fc:89:81:9e:aa:1a:e7:7d:0c:f7:49:64:31:d3:ac:fd:cb:
         a2:a8:8a:7f:ad:0e:de:39:d5:cb:60:5f:7e:36:7b:70:e3:33:
         c6:3b:f6:84:1b:55:b4:1e:ff:5d:44:d7:9c:ec:54:17:3f:de:
         4d:a2:35:b8:3f:99:a1:d6:53:0d:fe:2b:ff:fa:b2:7e:6a:27:
         7f:91:ef:76:70:39:d4:c5:6d:04:3f:f8:2f:35:00:c8:7e:69:
         9d:24:25:80:a6:9d:72:79:ee:d3:da:a8:f3:18:bd:12:80:39:
         bd:37:7e:ee:8e:26:ba:ad:51:05:7d:a9:91:82:c0:04:3f:d0:
         c8:47:9a:e5:e3:3e:46:da:85:d4:9a:73:b3:f7:55:09:ed:fb:
         fc:33:4d:58:56:82
-----BEGIN CERTIFICATE-----
MIIEpjCCAw6gAwIBAgIBLTANBgkqhkiG9w0BAQsFADBtMQswCQYDVQQGEwJGUjEP
MA0GA1UECAwGRnJhbmNlMREwDwYDVQQHDAhHcmVub2JsZTEiMCAGA1UECgwZQmVs
bGVkb25uZSBDb21tdW5pY2F0aW9uczEWMBQGA1UEAwwNSmVoYW4gTW9ubmllcjAe
Fw0yMDEyMTQyMTE2MDlaFw0zMDEyMTIyMTE2MDlaMHsxCzAJBgNVBAYTAkZSMQ8w
DQYDVQQIDAZGcmFuY2UxETAPBgNVBAcMCEdyZW5vYmxlMSIwIAYDVQQKDBlCZWxs
ZWRvbm5lIENvbW11bmljYXRpb25zMSQwIgYDVQQDDBtzaXA6Z2FuZGFsZkBzaXAu
ZXhhbXBsZS5vcmcwggEiMA0GCSqGSIb3DQEBAQUAA4IBDwAwggEKAoIBAQDyClbo
hbxLbwggLu70zKZVF2Wy9Xej+yMROlgy9r/iinfdN/xXNLfIMeLmC0ywKZeMTcK/
5u9AGJeXcrKleU2XunxQUgZgXTwSrptaJbh7W8CAADOMewKwAtbtowEpRnOn+guU
z9DTHRX1vnwRy8qdIlxXfUBS8mVni2hWvRJCBO8Y3rINR3Eu546vMW3XuWodiCLL
YEKlmKeILounCparrqBS9wIV8yYI5ai3RPGrRO81AhW3UCLimuM2uIX74hZRl/si
bUv9YxGkpu7jJN+ik6LAqNrum5UUQfpZkxoSd9r/W51TjYcf9twN7u6Bx8ob4EK0
ITB7xPrIWpLI455NAgMBAAGjgcIwgb8wCQYDVR0TBAIwADAsBglghkgBhvhCAQ0E
HxYdT3BlblNTTCBHZW5lcmF0ZWQgQ2VydGlmaWNhdGUwHQYDVR0OBBYEFEYZahYE
Q5ogwO38etZeQbp933xnMB8GA1UdIwQYMBaAFI2sDkQszSKs+BcO3otjeT33w8EO
MEQGA1UdEQQ9MDuGHHNpcDpnYW5kYWxmQHNpcC5saW5waG9uZS5vcmeGG3NpcDpn
YW5kYWxmQHNpcC5leGFtcGxlLm9yZzANBgkqhkiG9w0BAQsFAAOCAYEAkvNbRZOz
qlp+5CT5kGaFywIlcHuZI2q9OC7nG7NHKlJeSZgMcu8uNVERlt4C4zOO/1THFd+k
7Uig9PPCqIOMRzJRDD7DnE3N9svYjFDiXYYKivLpt9QCP8hp6VHv00Mz7jrhLVRD
NadYoApvFaNUPqqEfagk71T/P7upnEzJ68iA7L6OOLCHBjOiWuB2nsjK8FhvQ0A+
oaIAKRpWmQufvt8RvJp5EUE4yjbRKv4z4WP1QCwm9CLS/8bUKR32Adx4SYRqS0X2
pp4AW2PRRdgn9bFwIJMy6CBFcQa3RSsawi6SZGz0hL7cE6f9y/yJgZ6qGud9DPdJ
ZDHTrP3LoqiKf60O3jnVy2BffjZ7cOMzxjv2hBtVtB7/XUTXnOxUFz/eTaI1uD+Z
odZTDf4r//qyfmonf5HvdnA51MVtBD/4LzUAyH5pnSQlgKadcnnu09qo8xi9EoA5
vTd+7o4muq1RBX2pkYLABD/QyEea5eM+RtqF1Jpzs/dVCe37/DNNWFaC
-----END CERTIFICATE-----
