Certificate:
    Data:
        Version: 3 (0x2)
        Serial Number: 46 (0x2e)
        Signature Algorithm: sha256WithRSAEncryption
        Issuer: C=FR, ST=France, L=Grenoble, O=Belledonne Communications, CN=Jehan Monnier
        Validity
            Not Before: Dec 14 22:26:17 2020 GMT
            Not After : Dec 12 22:26:17 2030 GMT
        Subject: C=FR, ST=France, L=Grenoble, O=Belledonne Communications, CN=Jehan Monnier
        Subject Public Key Info:
            Public Key Algorithm: rsaEncryption
                RSA Public-Key: (2048 bit)
                Modulus:
                    00:9e:27:e4:2c:6e:7a:ba:48:ac:6e:ea:a4:46:fd:
                    c4:ce:46:11:06:b5:8c:52:58:bd:6d:9a:71:35:5e:
                    f7:aa:14:93:6a:bf:f7:e4:fd:a9:0c:7e:51:2f:74:
                    c6:52:b5:32:ae:6a:a8:2c:8c:60:43:a3:53:c1:7b:
                    b1:91:f1:12:4e:5e:bb:43:71:fd:1c:46:0a:27:4d:
                    3a:30:51:14:ba:77:ea:4b:ec:9c:e6:54:0f:41:99:
                    96:a7:f4:59:e4:b7:bd:d9:b0:aa:d6:e2:f8:fe:d9:
                    98:88:92:8f:6f:48:51:fa:b1:9b:54:df:39:aa:a2:
                    e9:ef:1e:5b:e8:6e:e4:0a:42:40:60:9c:8d:2e:64:
                    79:73:d6:34:65:04:9f:22:74:e3:4b:32:fc:9c:c8:
                    8f:46:46:29:95:5e:94:93:a5:32:82:b7:96:6b:19:
                    16:10:b2:80:28:aa:d7:da:5c:0d:e1:9c:5e:8f:94:
                    19:1b:09:bb:d2:2a:86:81:f3:d4:e2:3b:9c:5e:42:
                    43:7c:56:ab:a6:a6:75:2a:ac:bd:1b:68:af:11:a9:
                    54:7f:d7:17:c7:e2:14:21:c3:b5:e4:62:a3:e9:4d:
                    c0:5d:33:76:05:d2:2c:3c:7e:03:4d:5c:75:69:2e:
                    e4:35:ca:48:bc:b5:ed:74:cf:de:0f:3c:e1:f1:a0:
                    cb:07
                Exponent: 65537 (0x10001)
        X509v3 extensions:
            X509v3 Basic Constraints: 
                CA:FALSE
            Netscape Comment: 
                OpenSSL Generated Certificate
            X509v3 Subject Key Identifier: 
                DC:A5:35:25:1C:E8:C0:F2:C3:E2:A0:7A:38:7B:66:EC:D1:2F:0D:C4
            X509v3 Authority Key Identifier: 
                keyid:8D:AC:0E:44:2C:CD:22:AC:F8:17:0E:DE:8B:63:79:3D:F7:C3:C1:0E

            X509v3 Subject Alternative Name: 
                DNS:sip:user_1@sip.example.org
    Signature Algorithm: sha256WithRSAEncryption
         3e:8e:9e:48:63:e0:c0:2f:d7:8a:74:f5:41:e6:24:9a:11:6e:
         df:1d:0b:d0:77:11:b2:36:91:98:5b:49:cc:d5:09:de:f0:59:
         95:3f:ba:69:53:0d:69:ae:2a:00:46:1e:85:89:72:e2:7e:49:
         0a:34:74:57:19:74:a1:3c:28:17:89:57:bf:8f:63:54:4c:9d:
         ff:d1:50:f6:28:02:51:e5:1a:f4:06:44:69:20:bd:0c:43:d2:
         d1:3b:29:a6:1a:3e:48:55:1a:8b:35:de:95:1a:e9:de:59:85:
         8e:67:5c:8e:0e:54:c3:31:c9:ba:5d:68:4b:8a:b7:e9:06:7b:
         64:cb:bb:6a:5f:c3:bd:9e:49:3f:97:34:00:a6:be:e9:ed:9c:
         0e:71:ae:02:40:ba:5e:be:83:4d:6f:26:4c:ad:db:21:e3:bd:
         b0:58:35:0c:c1:a0:a5:01:19:75:d0:1e:1f:cf:fe:e0:a2:13:
         23:9e:9c:45:64:0f:be:97:30:ac:52:db:a2:b2:77:00:6c:d2:
         24:5f:e9:ab:1f:66:5c:71:d2:e4:88:24:12:68:1a:b3:61:ee:
         fd:c9:98:3f:f9:de:b1:52:c3:ad:40:4e:60:26:85:aa:9a:df:
         6e:d2:a9:03:d2:9a:02:06:cf:95:a1:b8:70:01:e6:09:ba:d1:
         19:f5:83:08:e9:e9:89:62:5f:7e:b9:f5:f8:db:53:26:96:99:
         27:a7:72:a4:59:48:0e:48:47:f0:a0:60:08:26:eb:56:7b:23:
         2e:ff:26:5b:45:80:09:62:0a:63:f7:3a:32:2d:b6:01:fe:5e:
         5c:53:45:d9:f5:9e:7f:27:97:42:b5:5b:a7:7f:f3:60:39:f2:
         10:bb:bc:10:20:ce:58:ca:19:78:fd:e7:6e:83:cd:ce:4a:ac:
         34:36:d8:be:57:8d:f9:7c:1e:bf:ac:42:87:40:aa:12:6f:f9:
         f6:00:ba:3d:f5:33:da:61:4c:23:d1:b8:78:93:fa:d0:61:bd:
         21:76:3a:4f:ab:5d
-----BEGIN CERTIFICATE-----
MIIEeTCCAuGgAwIBAgIBLjANBgkqhkiG9w0BAQsFADBtMQswCQYDVQQGEwJGUjEP
MA0GA1UECAwGRnJhbmNlMREwDwYDVQQHDAhHcmVub2JsZTEiMCAGA1UECgwZQmVs
bGVkb25uZSBDb21tdW5pY2F0aW9uczEWMBQGA1UEAwwNSmVoYW4gTW9ubmllcjAe
Fw0yMDEyMTQyMjI2MTdaFw0zMDEyMTIyMjI2MTdaMG0xCzAJBgNVBAYTAkZSMQ8w
DQYDVQQIDAZGcmFuY2UxETAPBgNVBAcMCEdyZW5vYmxlMSIwIAYDVQQKDBlCZWxs
ZWRvbm5lIENvbW11bmljYXRpb25zMRYwFAYDVQQDDA1KZWhhbiBNb25uaWVyMIIB
IjANBgkqhkiG9w0BAQEFAAOCAQ8AMIIBCgKCAQEAnifkLG56ukisbuqkRv3EzkYR
BrWMUli9bZpxNV73qhSTar/35P2pDH5RL3TGUrUyrmqoLIxgQ6NTwXuxkfESTl67
Q3H9HEYKJ006MFEUunfqS+yc5lQPQZmWp/RZ5Le92bCq1uL4/tmYiJKPb0hR+rGb
VN85qqLp7x5b6G7kCkJAYJyNLmR5c9Y0ZQSfInTjSzL8nMiPRkYplV6Uk6UygreW
axkWELKAKKrX2lwN4Zxej5QZGwm70iqGgfPU4jucXkJDfFarpqZ1Kqy9G2ivEalU
f9cXx+IUIcO15GKj6U3AXTN2BdIsPH4DTVx1aS7kNcpIvLXtdM/eDzzh8aDLBwID
AQABo4GjMIGgMAkGA1UdEwQCMAAwLAYJYIZIAYb4QgENBB8WHU9wZW5TU0wgR2Vu
ZXJhdGVkIENlcnRpZmljYXRlMB0GA1UdDgQWBBTcpTUlHOjA8sPioHo4e2bs0S8N
xDAfBgNVHSMEGDAWgBSNrA5ELM0irPgXDt6LY3k998PBDjAlBgNVHREEHjAcghpz
aXA6dXNlcl8xQHNpcC5leGFtcGxlLm9yZzANBgkqhkiG9w0BAQsFAAOCAYEAPo6e
SGPgwC/XinT1QeYkmhFu3x0L0HcRsjaRmFtJzNUJ3vBZlT+6aVMNaa4qAEYehYly
4n5JCjR0Vxl0oTwoF4lXv49jVEyd/9FQ9igCUeUa9AZEaSC9DEPS0Tsppho+SFUa
izXelRrp3lmFjmdcjg5UwzHJul1oS4q36QZ7ZMu7al/DvZ5JP5c0AKa+6e2cDnGu
AkC6Xr6DTW8mTK3bIeO9sFg1DMGgpQEZddAeH8/+4KITI56cRWQPvpcwrFLborJ3
AGzSJF/pqx9mXHHS5IgkEmgas2Hu/cmYP/nesVLDrUBOYCaFqprfbtKpA9KaAgbP
laG4cAHmCbrRGfWDCOnpiWJffrn1+NtTJpaZJ6dypFlIDkhH8KBgCCbrVnsjLv8m
W0WACWIKY/c6Mi22Af5eXFNF2fWefyeXQrVbp3/zYDnyELu8ECDOWMoZeP3nboPN
zkqsNDbYvleN+Xwev6xCh0CqEm/59gC6PfUz2mFMI9G4eJP60GG9IXY6T6td
-----END CERTIFICATE-----
