Certificate:
    Data:
        Version: 3 (0x2)
        Serial Number: 28 (0x1c)
        Signature Algorithm: sha256WithRSAEncryption
        Issuer: C=FR, ST=Some-State, L=Grenoble, O=Belledonne Communications, OU=LAB, CN=Jehan Monnier/emailAddress=jehan.monnier@belledonne-communications.com
        Validity
            Not Before: May 30 19:40:17 2020 GMT
            Not After : May 28 19:40:17 2030 GMT
        Subject: C=FR, ST=France, L=Grenoble, O=Belledonne Communications, CN=User 1
        Subject Public Key Info:
            Public Key Algorithm: rsaEncryption
                RSA Public-Key: (2048 bit)
                Modulus:
                    00:f1:b1:91:e5:34:ef:81:21:b7:25:af:48:48:4e:
                    ea:f2:b9:6c:f4:06:6e:59:8e:24:7a:83:3a:50:22:
                    64:7b:24:f2:ee:f3:3e:21:68:77:e1:e9:e4:b1:dc:
                    8b:01:5b:ad:75:a1:31:fc:b1:08:5a:ad:69:32:4b:
                    5d:69:1b:a9:03:3b:71:55:1b:25:0c:d3:a2:5c:03:
                    b0:fb:41:f3:10:3d:92:21:2d:27:03:ca:df:4d:c1:
                    ba:56:ee:0b:e0:74:f5:17:e7:d6:9b:4b:54:5d:2f:
                    42:dc:de:b8:70:79:89:df:11:52:c4:28:60:b3:a4:
                    e1:51:b2:9a:47:3a:1a:ae:6e:6a:eb:95:3d:d0:7e:
                    79:ca:70:3f:3e:4d:f4:e9:7f:6f:42:40:dc:8b:68:
                    4f:ad:7f:a2:eb:e6:72:3d:7b:5b:5a:8f:3d:c9:eb:
                    57:2e:67:22:78:8c:47:93:db:2b:e6:ed:18:03:e2:
                    ae:1a:da:89:35:fa:e2:b0:21:89:a6:bb:e8:ec:f8:
                    24:72:3f:12:75:4f:dc:e4:ad:f6:9a:fb:9f:d8:c6:
                    a8:4d:cc:b7:48:f9:b1:94:63:e3:27:e7:6e:7f:19:
                    9e:12:d6:4a:23:ae:1a:88:05:65:c9:ad:18:a0:16:
                    cf:db:d1:e1:38:68:1a:c8:75:f1:12:ba:4e:01:b4:
                    4f:6f
                Exponent: 65537 (0x10001)
        X509v3 extensions:
            X509v3 Basic Constraints: 
                CA:FALSE
            X509v3 Key Usage: 
                Digital Signature, Non Repudiation, Key Encipherment
            X509v3 Subject Alternative Name: 
                DNS:sip:user_1alias1@sip.example.org, DNS:sips:user_1@sip.example.org, DNS:sip:user_1@sip.example.org, DNS:sip:user_1alias2@sip.example.org
    Signature Algorithm: sha256WithRSAEncryption
         94:fd:6c:f3:ce:16:cf:c0:19:10:64:e4:1a:b0:f4:27:90:cb:
         d7:ba:58:70:a7:8f:ae:40:77:a6:e0:a6:20:25:59:3c:82:83:
         07:5f:d9:ab:00:76:c7:50:9b:37:a3:d6:8d:a4:70:bb:24:67:
         07:5b:5c:b8:73:76:14:8f:2a:22:60:eb:c7:2a:38:60:db:1d:
         79:50:1c:d2:3d:a4:9f:26:7b:01:b8:f9:99:83:d5:56:9c:f4:
         8b:10:4a:46:a7:15:be:e6:98:cd:e0:7c:a2:dd:9f:63:be:c8:
         c2:0b:a5:8c:c2:93:3d:58:c5:4f:ed:24:c0:d5:54:5b:cd:ef:
         9b:fd
-----BEGIN CERTIFICATE-----
MIIDwTCCAyqgAwIBAgIBHDANBgkqhkiG9w0BAQsFADCBuzELMAkGA1UEBhMCRlIx
EzARBgNVBAgMClNvbWUtU3RhdGUxETAPBgNVBAcMCEdyZW5vYmxlMSIwIAYDVQQK
DBlCZWxsZWRvbm5lIENvbW11bmljYXRpb25zMQwwCgYDVQQLDANMQUIxFjAUBgNV
BAMMDUplaGFuIE1vbm5pZXIxOjA4BgkqhkiG9w0BCQEWK2plaGFuLm1vbm5pZXJA
YmVsbGVkb25uZS1jb21tdW5pY2F0aW9ucy5jb20wHhcNMjAwNTMwMTk0MDE3WhcN
MzAwNTI4MTk0MDE3WjBmMQswCQYDVQQGEwJGUjEPMA0GA1UECAwGRnJhbmNlMREw
DwYDVQQHDAhHcmVub2JsZTEiMCAGA1UECgwZQmVsbGVkb25uZSBDb21tdW5pY2F0
aW9uczEPMA0GA1UEAwwGVXNlciAxMIIBIjANBgkqhkiG9w0BAQEFAAOCAQ8AMIIB
CgKCAQEA8bGR5TTvgSG3Ja9ISE7q8rls9AZuWY4keoM6UCJkeyTy7vM+IWh34enk
sdyLAVutdaEx/LEIWq1pMktdaRupAztxVRslDNOiXAOw+0HzED2SIS0nA8rfTcG6
Vu4L4HT1F+fWm0tUXS9C3N64cHmJ3xFSxChgs6ThUbKaRzoarm5q65U90H55ynA/
Pk306X9vQkDci2hPrX+i6+ZyPXtbWo89yetXLmcieIxHk9sr5u0YA+KuGtqJNfri
sCGJprvo7Pgkcj8SdU/c5K32mvuf2MaoTcy3SPmxlGPjJ+dufxmeEtZKI64aiAVl
ya0YoBbP29HhOGgayHXxErpOAbRPbwIDAQABo4GkMIGhMAkGA1UdEwQCMAAwCwYD
VR0PBAQDAgXgMIGGBgNVHREEfzB9giBzaXA6dXNlcl8xYWxpYXMxQHNpcC5leGFt
cGxlLm9yZ4Ibc2lwczp1c2VyXzFAc2lwLmV4YW1wbGUub3JnghpzaXA6dXNlcl8x
QHNpcC5leGFtcGxlLm9yZ4Igc2lwOnVzZXJfMWFsaWFzMkBzaXAuZXhhbXBsZS5v
cmcwDQYJKoZIhvcNAQELBQADgYEAlP1s884Wz8AZEGTkGrD0J5DL17pYcKePrkB3
puCmICVZPIKDB1/ZqwB2x1CbN6PWjaRwuyRnB1tcuHN2FI8qImDrxyo4YNsdeVAc
0j2knyZ7Abj5mYPVVpz0ixBKRqcVvuaYzeB8ot2fY77IwguljMKTPVjFT+0kwNVU
W83vm/0=
-----END CERTIFICATE-----
