Certificate:
    Data:
        Version: 3 (0x2)
        Serial Number: 31 (0x1f)
        Signature Algorithm: sha256WithRSAEncryption
        Issuer: C=FR, ST=Some-State, L=Grenoble, O=Belledonne Communications, OU=LAB, CN=Jehan Monnier/emailAddress=jehan.monnier@belledonne-communications.com
        Validity
            Not Before: May 30 21:04:34 2020 GMT
            Not After : May 28 21:04:34 2030 GMT
        Subject: C=FR, ST=France, L=Grenoble, O=Belledonne Communications, CN=User 2
        Subject Public Key Info:
            Public Key Algorithm: rsaEncryption
                RSA Public-Key: (2048 bit)
                Modulus:
                    00:d3:31:35:7e:cc:76:bb:76:a5:28:96:9f:02:db:
                    00:6d:11:c6:9d:79:be:a3:6a:0d:70:3b:77:88:0b:
                    11:a7:84:28:ed:1b:25:a0:47:f2:ca:15:e3:8a:5f:
                    ca:92:ff:47:dd:81:fe:a3:d9:6c:68:60:e3:42:f3:
                    24:68:ad:aa:3e:0a:a9:9a:6f:45:d3:af:5a:c5:0a:
                    4c:84:dd:25:2c:2a:14:e7:fe:7a:95:8d:37:9f:78:
                    2a:7f:5d:ab:ac:18:81:93:2c:6e:27:b2:75:25:87:
                    e0:95:17:14:28:c7:ec:52:2b:60:0b:93:9e:01:54:
                    e5:be:27:84:71:90:bb:fc:0b:94:26:e6:41:22:9b:
                    fe:0b:0c:a6:63:2b:ef:51:6f:27:fa:51:73:e0:39:
                    27:ba:07:07:0a:8a:fe:8b:28:00:7d:42:f2:a6:37:
                    ee:ea:ac:8a:d2:c7:f0:1f:55:57:2f:12:cc:54:1e:
                    76:06:06:c8:cc:55:79:63:66:8b:ec:63:58:44:31:
                    48:66:e4:06:ed:8b:0c:73:60:7f:71:b5:5e:df:27:
                    73:43:97:48:76:1f:56:df:0b:c7:ee:ca:d0:d2:78:
                    e1:60:d5:fb:89:46:eb:69:f2:5d:6c:a2:7a:29:5a:
                    36:d6:9f:1a:f9:d4:b9:6d:4d:30:56:fe:37:97:e4:
                    fe:93
                Exponent: 65537 (0x10001)
        X509v3 extensions:
            X509v3 Basic Constraints: 
                CA:FALSE
            X509v3 Key Usage: 
                Digital Signature, Non Repudiation, Key Encipherment
            X509v3 Subject Alternative Name: 
                DNS:sip:user_2@sip.example.org
    Signature Algorithm: sha256WithRSAEncryption
         c5:cf:ba:33:15:27:18:dc:a9:29:a5:17:f5:f3:ed:13:11:36:
         de:d6:51:c0:82:76:19:7e:09:78:52:d0:33:8e:90:d1:a0:00:
         47:4f:3e:ba:c4:0f:69:f6:3d:cb:e5:d3:2d:57:aa:28:cf:67:
         47:66:f7:cb:44:f3:be:92:42:9a:ed:46:4c:a4:f4:46:68:5e:
         eb:3d:44:26:18:de:ba:26:ec:5e:f8:a9:e3:5b:af:10:83:a5:
         4d:d0:ec:6a:31:89:7b:e7:99:de:b4:44:ad:b5:1c:d9:d5:c0:
         92:ae:0d:ad:4b:d1:2f:61:a2:6b:43:0d:39:1c:5f:25:76:d4:
         62:c7
-----BEGIN CERTIFICATE-----
MIIDXTCCAsagAwIBAgIBHzANBgkqhkiG9w0BAQsFADCBuzELMAkGA1UEBhMCRlIx
EzARBgNVBAgMClNvbWUtU3RhdGUxETAPBgNVBAcMCEdyZW5vYmxlMSIwIAYDVQQK
DBlCZWxsZWRvbm5lIENvbW11bmljYXRpb25zMQwwCgYDVQQLDANMQUIxFjAUBgNV
BAMMDUplaGFuIE1vbm5pZXIxOjA4BgkqhkiG9w0BCQEWK2plaGFuLm1vbm5pZXJA
YmVsbGVkb25uZS1jb21tdW5pY2F0aW9ucy5jb20wHhcNMjAwNTMwMjEwNDM0WhcN
MzAwNTI4MjEwNDM0WjBmMQswCQYDVQQGEwJGUjEPMA0GA1UECAwGRnJhbmNlMREw
DwYDVQQHDAhHcmVub2JsZTEiMCAGA1UECgwZQmVsbGVkb25uZSBDb21tdW5pY2F0
aW9uczEPMA0GA1UEAwwGVXNlciAyMIIBIjANBgkqhkiG9w0BAQEFAAOCAQ8AMIIB
CgKCAQEA0zE1fsx2u3alKJafAtsAbRHGnXm+o2oNcDt3iAsRp4Qo7RsloEfyyhXj
il/Kkv9H3YH+o9lsaGDjQvMkaK2qPgqpmm9F069axQpMhN0lLCoU5/56lY03n3gq
f12rrBiBkyxuJ7J1JYfglRcUKMfsUitgC5OeAVTlvieEcZC7/AuUJuZBIpv+Cwym
YyvvUW8n+lFz4DknugcHCor+iygAfULypjfu6qyK0sfwH1VXLxLMVB52BgbIzFV5
Y2aL7GNYRDFIZuQG7YsMc2B/cbVe3ydzQ5dIdh9W3wvH7srQ0njhYNX7iUbrafJd
bKJ6KVo21p8a+dS5bU0wVv43l+T+kwIDAQABo0EwPzAJBgNVHRMEAjAAMAsGA1Ud
DwQEAwIF4DAlBgNVHREEHjAcghpzaXA6dXNlcl8yQHNpcC5leGFtcGxlLm9yZzAN
BgkqhkiG9w0BAQsFAAOBgQDFz7ozFScY3KkppRf18+0TETbe1lHAgnYZfgl4UtAz
jpDRoABHTz66xA9p9j3L5dMtV6ooz2dHZvfLRPO+kkKa7UZMpPRGaF7rPUQmGN66
Juxe+KnjW68Qg6VN0OxqMYl755netESttRzZ1cCSrg2tS9EvYaJrQw05HF8ldtRi
xw==
-----END CERTIFICATE-----
