Certificate:
    Data:
        Version: 3 (0x2)
        Serial Number: 47 (0x2f)
        Signature Algorithm: sha256WithRSAEncryption
        Issuer: C=FR, ST=France, L=Grenoble, O=Belledonne Communications, CN=Jehan Monnier
        Validity
            Not Before: Dec 15 07:11:08 2020 GMT
            Not After : Dec 13 07:11:08 2030 GMT
        Subject: C=FR, ST=France, L=Grenoble, O=Belledonne Communications, CN=User 2
        Subject Public Key Info:
            Public Key Algorithm: rsaEncryption
                RSA Public-Key: (2048 bit)
                Modulus:
                    00:bb:cb:e9:ba:c8:db:3b:8f:72:57:60:f5:83:72:
                    25:93:d5:42:6a:58:23:51:0c:f6:3a:fe:6c:2d:5a:
                    ae:28:c2:92:46:f1:de:07:e7:14:5d:72:35:07:d2:
                    34:a4:80:24:ec:34:b0:30:a2:f4:8a:13:ba:62:09:
                    d2:74:ee:ce:0b:7f:f9:1c:c6:6f:61:0c:23:8b:86:
                    5a:42:54:e0:d2:ec:56:b5:fb:89:e7:11:be:1a:9b:
                    e8:24:c5:d1:ba:7f:3e:cf:f1:99:c8:ad:d6:fa:2e:
                    1e:f2:08:05:6f:b3:af:62:1b:0c:a3:b7:fa:44:2f:
                    bc:8a:41:cd:36:4e:ba:04:06:d8:84:90:ae:fb:18:
                    af:2d:ef:4d:35:1f:85:35:85:3a:ec:24:3e:04:6f:
                    d5:60:1d:b9:83:bd:19:85:e2:82:ae:bc:54:28:a2:
                    b3:c7:41:0f:06:21:b0:4e:aa:b3:ca:de:d7:47:a0:
                    eb:76:36:9e:59:66:9f:e2:b7:81:69:27:ba:ca:2a:
                    70:d1:47:79:5f:a0:93:b2:d8:56:e2:02:ad:f1:00:
                    4d:e4:11:64:15:66:c0:ad:d8:b2:e8:18:d4:87:0f:
                    13:b1:9e:b3:51:35:9a:c1:75:c2:1b:85:a5:68:db:
                    a4:24:e1:fc:75:f2:3f:f7:ab:90:8a:da:21:ce:a1:
                    50:33
                Exponent: 65537 (0x10001)
        X509v3 extensions:
            X509v3 Basic Constraints: 
                CA:FALSE
            Netscape Comment: 
                OpenSSL Generated Certificate
            X509v3 Subject Key Identifier: 
                F7:ED:A2:56:DF:1A:EF:84:20:8E:4A:3F:A8:EB:E1:64:87:5F:6C:63
            X509v3 Authority Key Identifier: 
                keyid:8D:AC:0E:44:2C:CD:22:AC:F8:17:0E:DE:8B:63:79:3D:F7:C3:C1:0E

            X509v3 Subject Alternative Name: 
                DNS:sip:user_2@sip.example.org, DNS:sips:user_2@sip.example.org
    Signature Algorithm: sha256WithRSAEncryption
         a4:75:37:41:d0:8d:4b:4d:75:33:24:eb:80:4b:e4:01:1f:ed:
         3f:cd:17:94:7d:7b:c7:9f:98:8f:9a:e3:88:ef:7c:06:5e:8d:
         2c:63:b0:81:5d:04:71:fc:f3:a0:46:05:e3:7c:b7:34:a7:f9:
         42:d8:51:53:8d:c9:0f:45:35:2a:d3:3b:70:2e:b8:0e:5c:ca:
         56:9a:f3:ff:15:cf:b0:dd:78:de:27:bb:e9:ad:2f:c3:78:f9:
         2b:99:5a:d4:0c:18:01:12:df:be:46:18:21:a9:70:2d:81:ef:
         cd:f3:8b:8e:b6:b3:88:95:44:ab:18:78:16:ed:93:03:cd:22:
         b3:d4:f1:27:76:a6:ec:c7:5c:c1:11:8b:e5:8f:db:3a:c4:09:
         96:24:a3:4f:b9:a0:b3:94:af:1b:08:a0:0c:b0:08:20:d2:63:
         93:3a:a1:ab:ec:fa:2f:f2:f9:a3:f6:e0:90:50:48:15:c0:ad:
         eb:2f:31:60:24:0b:7e:62:fd:c3:4d:d0:f5:d0:17:e2:eb:fc:
         37:ea:3d:cc:53:46:2d:13:0f:4b:38:a4:73:24:68:1b:cc:aa:
         aa:cd:3b:e6:93:29:db:74:14:23:df:f1:11:85:f1:11:84:de:
         d0:f6:35:74:dc:97:b5:9a:3e:f6:38:9c:f7:de:12:35:00:0f:
         c1:02:aa:9c:7e:ae:80:d3:27:0c:6f:ad:b9:68:2b:5c:ab:e9:
         ee:2b:eb:19:00:29:e0:c6:bd:63:7e:3d:e0:8e:14:35:91:25:
         50:b4:0e:1e:59:16:a0:89:a5:5d:a9:a9:5e:23:d2:c1:ce:7a:
         3c:0e:37:41:90:f0:d6:9a:7a:be:6f:e5:c8:a9:55:2d:3e:b1:
         7f:0e:64:9c:0a:39:1b:81:1a:e1:26:df:4a:c6:d8:9a:e3:47:
         69:ce:08:19:cc:92:0a:48:a6:6c:b8:c3:fb:f5:6e:ce:6e:f9:
         d1:46:93:aa:c4:60:80:ca:fc:00:8c:c5:df:e1:52:95:75:2c:
         eb:c6:5e:95:86:2b
-----BEGIN CERTIFICATE-----
MIIEjzCCAvegAwIBAgIBLzANBgkqhkiG9w0BAQsFADBtMQswCQYDVQQGEwJGUjEP
MA0GA1UECAwGRnJhbmNlMREwDwYDVQQHDAhHcmVub2JsZTEiMCAGA1UECgwZQmVs
bGVkb25uZSBDb21tdW5pY2F0aW9uczEWMBQGA1UEAwwNSmVoYW4gTW9ubmllcjAe
Fw0yMDEyMTUwNzExMDhaFw0zMDEyMTMwNzExMDhaMGYxCzAJBgNVBAYTAkZSMQ8w
DQYDVQQIDAZGcmFuY2UxETAPBgNVBAcMCEdyZW5vYmxlMSIwIAYDVQQKDBlCZWxs
ZWRvbm5lIENvbW11bmljYXRpb25zMQ8wDQYDVQQDDAZVc2VyIDIwggEiMA0GCSqG
SIb3DQEBAQUAA4IBDwAwggEKAoIBAQC7y+m6yNs7j3JXYPWDciWT1UJqWCNRDPY6
/mwtWq4owpJG8d4H5xRdcjUH0jSkgCTsNLAwovSKE7piCdJ07s4Lf/kcxm9hDCOL
hlpCVODS7Fa1+4nnEb4am+gkxdG6fz7P8ZnIrdb6Lh7yCAVvs69iGwyjt/pEL7yK
Qc02TroEBtiEkK77GK8t7001H4U1hTrsJD4Eb9VgHbmDvRmF4oKuvFQoorPHQQ8G
IbBOqrPK3tdHoOt2Np5ZZp/it4FpJ7rKKnDRR3lfoJOy2FbiAq3xAE3kEWQVZsCt
2LLoGNSHDxOxnrNRNZrBdcIbhaVo26Qk4fx18j/3q5CK2iHOoVAzAgMBAAGjgcAw
gb0wCQYDVR0TBAIwADAsBglghkgBhvhCAQ0EHxYdT3BlblNTTCBHZW5lcmF0ZWQg
Q2VydGlmaWNhdGUwHQYDVR0OBBYEFPftolbfGu+EII5KP6jr4WSHX2xjMB8GA1Ud
IwQYMBaAFI2sDkQszSKs+BcO3otjeT33w8EOMEIGA1UdEQQ7MDmCGnNpcDp1c2Vy
XzJAc2lwLmV4YW1wbGUub3JnghtzaXBzOnVzZXJfMkBzaXAuZXhhbXBsZS5vcmcw
DQYJKoZIhvcNAQELBQADggGBAKR1N0HQjUtNdTMk64BL5AEf7T/NF5R9e8efmI+a
44jvfAZejSxjsIFdBHH886BGBeN8tzSn+ULYUVONyQ9FNSrTO3AuuA5cylaa8/8V
z7DdeN4nu+mtL8N4+SuZWtQMGAES375GGCGpcC2B783zi462s4iVRKsYeBbtkwPN
IrPU8Sd2puzHXMERi+WP2zrECZYko0+5oLOUrxsIoAywCCDSY5M6oavs+i/y+aP2
4JBQSBXAresvMWAkC35i/cNN0PXQF+Lr/DfqPcxTRi0TD0s4pHMkaBvMqqrNO+aT
Kdt0FCPf8RGF8RGE3tD2NXTcl7WaPvY4nPfeEjUAD8ECqpx+roDTJwxvrbloK1yr
6e4r6xkAKeDGvWN+PeCOFDWRJVC0Dh5ZFqCJpV2pqV4j0sHOejwON0GQ8Naaer5v
5cipVS0+sX8OZJwKORuBGuEm30rG2JrjR2nOCBnMkgpIpmy4w/v1bs5u+dFGk6rE
YIDK/ACMxd/hUpV1LOvGXpWGKw==
-----END CERTIFICATE-----
