Certificate:
    Data:
        Version: 3 (0x2)
        Serial Number: 49 (0x31)
        Signature Algorithm: sha256WithRSAEncryption
        Issuer: C=FR, ST=France, L=Grenoble, O=Belledonne Communications, CN=Jehan Monnier
        Validity
            Not Before: Dec 15 08:19:07 2020 GMT
            Not After : Dec 13 08:19:07 2030 GMT
        Subject: C=FR, ST=France, L=Grenoble, O=Belledonne Communications, CN=sip:user_2@sip.example.org
        Subject Public Key Info:
            Public Key Algorithm: rsaEncryption
                RSA Public-Key: (2048 bit)
                Modulus:
                    00:b8:2d:a4:c8:f6:a2:70:ae:67:d4:01:e1:40:df:
                    02:08:73:12:5b:fd:d1:a9:45:dc:a7:11:36:0b:d4:
                    82:f3:b1:ba:1b:ad:e7:44:05:54:2d:b8:75:e7:72:
                    a7:e9:16:d9:f3:0e:74:da:18:57:f4:b5:e4:d8:ea:
                    ab:66:7f:cc:5e:bf:e1:84:92:26:c1:08:bc:df:b5:
                    cf:bb:2a:17:ac:3f:81:fd:d3:a6:19:c5:60:a2:92:
                    67:ba:fb:48:7f:98:5f:66:6c:af:bc:7a:77:fe:52:
                    cd:90:2a:a1:fc:95:ce:bf:c1:36:94:fd:b1:0d:47:
                    d8:ff:7a:f4:2a:79:e1:53:ad:f1:12:18:be:43:6b:
                    58:92:6f:05:1e:7f:be:52:c3:7f:cb:35:29:61:22:
                    19:58:07:5c:f1:ee:66:6d:2f:79:df:72:8e:d7:be:
                    9e:e8:2c:a8:8a:f5:a7:38:8e:17:f6:28:d7:9b:87:
                    11:47:9d:cf:3a:12:99:1f:4f:a4:ce:e6:69:d0:11:
                    ef:76:37:d1:81:36:a2:60:57:0a:86:0c:b9:70:b0:
                    41:7c:25:4c:bc:e8:93:fe:12:d9:b0:47:9d:14:45:
                    65:ac:42:07:30:8c:65:73:53:ff:0c:62:73:0d:17:
                    75:8c:19:91:a3:84:e5:dd:d8:53:8b:69:7c:ec:83:
                    67:bb
                Exponent: 65537 (0x10001)
        X509v3 extensions:
            X509v3 Basic Constraints: 
                CA:FALSE
            Netscape Comment: 
                OpenSSL Generated Certificate
            X509v3 Subject Key Identifier: 
                14:0C:EA:A8:5A:E0:B6:B7:9A:DA:0C:10:AF:C5:B8:FB:61:F8:BB:F6
            X509v3 Authority Key Identifier: 
                keyid:8D:AC:0E:44:2C:CD:22:AC:F8:17:0E:DE:8B:63:79:3D:F7:C3:C1:0E

            X509v3 Subject Alternative Name: 
                DNS:sip:user_2alias@sip.example.org
    Signature Algorithm: sha256WithRSAEncryption
         a5:a7:2c:5b:3c:b0:90:4a:18:0c:b7:e9:0e:a4:ed:0f:e0:a3:
         0b:ac:f5:85:22:27:4f:16:73:5c:7f:1a:9d:ff:95:f6:49:2a:
         66:15:c2:1f:06:32:a8:f1:8d:d8:33:06:72:5c:6d:92:7f:6f:
         df:8a:40:a8:ff:59:76:ee:63:89:e0:02:0d:05:d8:f2:19:ff:
         39:38:8e:f4:19:31:f1:69:0f:90:bb:5d:87:e3:b5:ab:c1:ac:
         72:0b:a5:da:81:77:a9:62:5d:de:0a:cd:1c:00:99:9e:08:69:
         f9:4c:e3:f6:10:54:bd:ff:a6:6d:0a:32:43:37:aa:68:a2:df:
         cf:10:41:3b:b8:dc:28:99:a8:be:81:76:9a:48:d2:1a:b4:74:
         ce:9d:98:09:d4:2b:08:e8:19:61:9a:d8:05:36:a9:97:71:a5:
         4c:a7:b7:8f:41:8d:0e:53:2c:1b:9f:f5:6e:d5:fd:d7:d8:1a:
         19:1a:21:d7:77:c5:fe:23:1f:90:93:4f:a0:69:d5:ea:bc:49:
         9a:a2:6d:77:5f:8d:de:ea:31:80:60:50:17:5a:d3:23:62:09:
         1e:22:e3:a9:9d:93:f7:71:cb:d5:46:95:bd:43:94:3f:27:28:
         d2:66:f7:60:ac:65:0c:f2:1b:dd:12:1c:6c:03:e9:2c:fa:5c:
         15:9c:37:1f:86:84:55:67:e1:b0:4e:90:ee:a6:19:b9:2d:5d:
         10:c5:e4:24:99:e8:3a:26:3c:ee:f8:6c:b6:71:65:6f:d6:3b:
         e6:43:eb:c6:81:e0:cb:47:15:23:f7:d2:d5:d8:d8:8c:30:f3:
         6d:3c:cb:c4:4a:11:1a:c7:a0:6e:21:13:6b:50:9f:94:38:04:
         fc:55:d4:b8:1f:e4:01:a6:e7:d1:4f:8d:3f:32:42:e4:d6:f6:
         57:3f:c5:7c:2b:5c:be:52:b2:92:8c:08:da:81:43:ad:6a:e3:
         a7:2f:06:a0:21:08:43:53:d5:63:02:00:ff:e5:93:c3:43:fc:
         a7:ce:cc:c4:01:f7
-----BEGIN CERTIFICATE-----
MIIEizCCAvOgAwIBAgIBMTANBgkqhkiG9w0BAQsFADBtMQswCQYDVQQGEwJGUjEP
MA0GA1UECAwGRnJhbmNlMREwDwYDVQQHDAhHcmVub2JsZTEiMCAGA1UECgwZQmVs
bGVkb25uZSBDb21tdW5pY2F0aW9uczEWMBQGA1UEAwwNSmVoYW4gTW9ubmllcjAe
Fw0yMDEyMTUwODE5MDdaFw0zMDEyMTMwODE5MDdaMHoxCzAJBgNVBAYTAkZSMQ8w
DQYDVQQIDAZGcmFuY2UxETAPBgNVBAcMCEdyZW5vYmxlMSIwIAYDVQQKDBlCZWxs
ZWRvbm5lIENvbW11bmljYXRpb25zMSMwIQYDVQQDDBpzaXA6dXNlcl8yQHNpcC5l
eGFtcGxlLm9yZzCCASIwDQYJKoZIhvcNAQEBBQADggEPADCCAQoCggEBALgtpMj2
onCuZ9QB4UDfAghzElv90alF3KcRNgvUgvOxuhut50QFVC24dedyp+kW2fMOdNoY
V/S15Njqq2Z/zF6/4YSSJsEIvN+1z7sqF6w/gf3TphnFYKKSZ7r7SH+YX2Zsr7x6
d/5SzZAqofyVzr/BNpT9sQ1H2P969Cp54VOt8RIYvkNrWJJvBR5/vlLDf8s1KWEi
GVgHXPHuZm0ved9yjte+nugsqIr1pziOF/Yo15uHEUedzzoSmR9PpM7madAR73Y3
0YE2omBXCoYMuXCwQXwlTLzok/4S2bBHnRRFZaxCBzCMZXNT/wxicw0XdYwZkaOE
5d3YU4tpfOyDZ7sCAwEAAaOBqDCBpTAJBgNVHRMEAjAAMCwGCWCGSAGG+EIBDQQf
Fh1PcGVuU1NMIEdlbmVyYXRlZCBDZXJ0aWZpY2F0ZTAdBgNVHQ4EFgQUFAzqqFrg
trea2gwQr8W4+2H4u/YwHwYDVR0jBBgwFoAUjawORCzNIqz4Fw7ei2N5PffDwQ4w
KgYDVR0RBCMwIYIfc2lwOnVzZXJfMmFsaWFzQHNpcC5leGFtcGxlLm9yZzANBgkq
hkiG9w0BAQsFAAOCAYEApacsWzywkEoYDLfpDqTtD+CjC6z1hSInTxZzXH8anf+V
9kkqZhXCHwYyqPGN2DMGclxtkn9v34pAqP9Zdu5jieACDQXY8hn/OTiO9Bkx8WkP
kLtdh+O1q8Gscgul2oF3qWJd3grNHACZnghp+Uzj9hBUvf+mbQoyQzeqaKLfzxBB
O7jcKJmovoF2mkjSGrR0zp2YCdQrCOgZYZrYBTapl3GlTKe3j0GNDlMsG5/1btX9
19gaGRoh13fF/iMfkJNPoGnV6rxJmqJtd1+N3uoxgGBQF1rTI2IJHiLjqZ2T93HL
1UaVvUOUPyco0mb3YKxlDPIb3RIcbAPpLPpcFZw3H4aEVWfhsE6Q7qYZuS1dEMXk
JJnoOiY87vhstnFlb9Y75kPrxoHgy0cVI/fS1djYjDDzbTzLxEoRGsegbiETa1Cf
lDgE/FXUuB/kAabn0U+NPzJC5Nb2Vz/FfCtcvlKykowI2oFDrWrjpy8GoCEIQ1PV
YwIA/+WTw0P8p87MxAH3
-----END CERTIFICATE-----
