Certificate:
    Data:
        Version: 3 (0x2)
        Serial Number: 30 (0x1e)
        Signature Algorithm: sha256WithRSAEncryption
        Issuer: C=FR, ST=Some-State, L=Grenoble, O=Belledonne Communications, OU=LAB, CN=Jehan Monnier/emailAddress=jehan.monnier@belledonne-communications.com
        Validity
            Not Before: May 30 20:43:17 2020 GMT
            Not After : May 28 20:43:17 2030 GMT
        Subject: C=FR, ST=France, L=Grenoble, O=Belledonne Communications, CN=sip:user_2@sip.example.org
        Subject Public Key Info:
            Public Key Algorithm: rsaEncryption
                RSA Public-Key: (2048 bit)
                Modulus:
                    00:e6:20:2e:8f:37:5a:90:62:ce:a8:2a:26:dc:95:
                    9b:09:c9:22:99:35:19:9a:c0:d3:f1:a9:2d:39:fe:
                    18:e5:52:23:d6:91:9c:b3:47:d1:3e:ca:a2:72:9e:
                    fc:4f:86:15:05:b6:78:a6:0e:ea:48:00:9f:2f:e7:
                    83:44:8a:8a:c3:c4:18:40:82:45:9e:5f:e7:85:f6:
                    d0:30:55:ec:14:d7:5d:6f:c4:e5:cc:e2:cd:31:41:
                    30:9b:04:5e:c6:b8:b4:c1:3c:cb:d0:9f:61:53:35:
                    ec:d0:a5:bf:12:dd:78:79:e5:ed:93:87:ba:85:17:
                    ce:13:d0:be:53:e9:eb:2a:92:59:a8:f8:9f:84:cf:
                    ea:f4:74:78:81:2d:66:e7:1f:83:ca:db:ae:88:92:
                    96:cf:c2:e8:a5:28:07:dd:9b:ba:c1:9f:c2:8d:b7:
                    8d:9d:71:54:60:06:0b:7e:30:78:cc:9d:db:ee:6a:
                    27:08:fb:6e:3e:0b:0a:78:c4:80:a0:7f:f0:e2:9f:
                    fb:90:c0:06:93:b4:f3:02:c7:0d:74:24:09:8c:db:
                    fd:10:30:9b:1e:bc:c1:56:7f:4d:e8:0f:c7:1e:2a:
                    f9:f4:39:be:18:a3:3b:1f:77:69:0f:f3:a0:d4:99:
                    b6:79:1e:19:41:94:49:fc:25:ec:3d:17:16:22:cd:
                    97:a7
                Exponent: 65537 (0x10001)
        X509v3 extensions:
            X509v3 Basic Constraints: 
                CA:FALSE
            X509v3 Key Usage: 
                Digital Signature, Non Repudiation, Key Encipherment
            X509v3 Subject Alternative Name: 
                DNS:sip:user_2alias@sip.example.org
    Signature Algorithm: sha256WithRSAEncryption
         21:6f:ad:62:97:5c:0c:80:6c:07:01:59:1d:71:27:3e:ae:95:
         df:09:db:82:22:eb:f0:ec:d0:b6:a3:8e:a9:90:84:1a:82:b1:
         5b:47:bc:fa:cd:a1:7e:ed:60:59:74:1a:d9:32:8c:e7:07:0a:
         7a:d7:0c:33:76:43:92:f0:d7:c9:e0:c7:45:5a:9e:82:ee:c8:
         9c:8f:d4:e3:cf:ac:a1:28:5d:4d:2f:ec:f9:2d:95:74:c5:51:
         19:27:3e:ca:19:43:82:90:9a:31:9f:55:fc:38:c9:96:15:90:
         34:a7:5f:6a:fd:46:65:9d:81:a7:81:c0:d5:75:26:6d:2c:55:
         98:a9
-----BEGIN CERTIFICATE-----
MIIDdjCCAt+gAwIBAgIBHjANBgkqhkiG9w0BAQsFADCBuzELMAkGA1UEBhMCRlIx
EzARBgNVBAgMClNvbWUtU3RhdGUxETAPBgNVBAcMCEdyZW5vYmxlMSIwIAYDVQQK
DBlCZWxsZWRvbm5lIENvbW11bmljYXRpb25zMQwwCgYDVQQLDANMQUIxFjAUBgNV
BAMMDUplaGFuIE1vbm5pZXIxOjA4BgkqhkiG9w0BCQEWK2plaGFuLm1vbm5pZXJA
YmVsbGVkb25uZS1jb21tdW5pY2F0aW9ucy5jb20wHhcNMjAwNTMwMjA0MzE3WhcN
MzAwNTI4MjA0MzE3WjB6MQswCQYDVQQGEwJGUjEPMA0GA1UECAwGRnJhbmNlMREw
DwYDVQQHDAhHcmVub2JsZTEiMCAGA1UECgwZQmVsbGVkb25uZSBDb21tdW5pY2F0
aW9uczEjMCEGA1UEAwwac2lwOnVzZXJfMkBzaXAuZXhhbXBsZS5vcmcwggEiMA0G
CSqGSIb3DQEBAQUAA4IBDwAwggEKAoIBAQDmIC6PN1qQYs6oKibclZsJySKZNRma
wNPxqS05/hjlUiPWkZyzR9E+yqJynvxPhhUFtnimDupIAJ8v54NEiorDxBhAgkWe
X+eF9tAwVewU111vxOXM4s0xQTCbBF7GuLTBPMvQn2FTNezQpb8S3Xh55e2Th7qF
F84T0L5T6esqklmo+J+Ez+r0dHiBLWbnH4PK266IkpbPwuilKAfdm7rBn8KNt42d
cVRgBgt+MHjMndvuaicI+24+Cwp4xICgf/Din/uQwAaTtPMCxw10JAmM2/0QMJse
vMFWf03oD8ceKvn0Ob4Yozsfd2kP86DUmbZ5HhlBlEn8Jew9FxYizZenAgMBAAGj
RjBEMAkGA1UdEwQCMAAwCwYDVR0PBAQDAgXgMCoGA1UdEQQjMCGCH3NpcDp1c2Vy
XzJhbGlhc0BzaXAuZXhhbXBsZS5vcmcwDQYJKoZIhvcNAQELBQADgYEAIW+tYpdc
DIBsBwFZHXEnPq6V3wnbgiLr8OzQtqOOqZCEGoKxW0e8+s2hfu1gWXQa2TKM5wcK
etcMM3ZDkvDXyeDHRVqegu7InI/U48+soShdTS/s+S2VdMVRGSc+yhlDgpCaMZ9V
/DjJlhWQNKdfav1GZZ2Bp4HA1XUmbSxVmKk=
-----END CERTIFICATE-----
