Certificate:
    Data:
        Version: 3 (0x2)
        Serial Number: 50 (0x32)
        Signature Algorithm: sha256WithRSAEncryption
        Issuer: C=FR, ST=France, L=Grenoble, O=Belledonne Communications, CN=Jehan Monnier
        Validity
            Not Before: Dec 15 08:22:21 2020 GMT
            Not After : Dec 13 08:22:21 2030 GMT
        Subject: C=FR, ST=France, L=Grenoble, O=Belledonne Communications, CN=User 1
        Subject Public Key Info:
            Public Key Algorithm: rsaEncryption
                RSA Public-Key: (2048 bit)
                Modulus:
                    00:b7:12:d2:04:5a:25:c3:d3:6e:b3:34:22:d8:2f:
                    54:4b:62:da:1f:19:a5:2f:63:07:d3:9c:01:cc:fe:
                    7e:a4:0a:54:dd:26:23:90:70:2c:8d:9a:76:94:b8:
                    3e:1b:f2:ea:00:7f:56:d8:df:92:15:f1:02:21:2b:
                    cd:a3:04:78:56:e4:bb:f1:51:b1:4b:1a:57:a1:09:
                    b9:27:bf:ee:d5:ef:25:d5:54:d9:91:a5:7c:be:87:
                    b0:1b:99:bd:c8:fe:8f:92:ff:6e:79:87:4b:15:99:
                    76:f4:8e:29:ac:f9:00:35:51:b6:d6:e3:32:b5:46:
                    57:f4:1a:d3:c4:ae:7a:20:97:b2:35:3c:29:32:64:
                    8b:4c:dc:c7:3b:0e:a6:7e:94:d9:0e:f1:ca:1d:19:
                    ff:4b:c6:2b:26:6c:c2:47:d4:bd:02:bf:ac:29:25:
                    c1:3e:db:ad:83:00:17:9e:5c:a1:c8:85:a6:2e:28:
                    f0:ae:79:37:a7:23:5a:de:ae:7c:65:3f:27:fa:66:
                    03:1c:90:14:80:5e:5b:8e:85:b9:41:e4:ad:9c:04:
                    a2:ec:35:3d:17:17:1f:25:7a:73:8b:6a:bf:cb:c6:
                    9f:12:a9:3a:fa:6d:57:38:37:76:c2:36:0f:9c:66:
                    ab:76:89:e3:bd:93:4a:35:aa:05:c5:d3:7e:98:82:
                    89:e3
                Exponent: 65537 (0x10001)
        X509v3 extensions:
            X509v3 Basic Constraints: 
                CA:FALSE
            Netscape Comment: 
                OpenSSL Generated Certificate
            X509v3 Subject Key Identifier: 
                27:00:54:CC:61:1E:8E:BB:86:FA:38:C2:D5:62:B7:AE:2D:4F:53:A5
            X509v3 Authority Key Identifier: 
                keyid:8D:AC:0E:44:2C:CD:22:AC:F8:17:0E:DE:8B:63:79:3D:F7:C3:C1:0E

            X509v3 Subject Alternative Name: 
                DNS:sip:user_1alias1@sip.example.org, DNS:sips:user_1@sip.example.org, DNS:sip:user_1@sip.example.org, DNS:sip:user_1alias2@sip.example.org
    Signature Algorithm: sha256WithRSAEncryption
         87:8f:21:6e:5e:db:56:ac:81:9d:00:3c:a7:e3:50:a5:d2:87:
         2c:85:25:21:39:f8:c2:65:2d:21:d9:b6:b6:29:d5:5c:ed:86:
         73:7d:41:81:fe:d0:71:ac:a2:04:2b:ed:ca:bf:97:44:f9:5b:
         56:af:82:82:ed:e6:06:af:5b:f6:0a:88:45:57:88:98:bb:28:
         d8:0b:d3:23:40:1d:b2:70:d5:5d:d7:94:ed:a0:7b:2e:b2:fc:
         3e:53:83:e6:04:01:1e:ba:4c:68:6f:a4:6a:0b:d6:05:3f:99:
         5b:a7:c9:75:ec:e2:c9:a6:90:b4:52:a1:35:66:bd:e4:0b:ea:
         dc:a0:dd:a5:03:ad:ec:7f:24:50:ab:e6:3b:c1:74:fa:61:13:
         c0:bf:79:79:44:60:cc:aa:a9:24:3a:58:66:b3:41:4c:ab:34:
         b4:1e:70:b0:74:4f:05:02:92:47:06:04:89:76:ff:fb:fe:f0:
         a7:33:90:a0:34:28:97:7b:c1:01:86:af:c9:15:0a:6d:c9:50:
         37:f4:3d:53:58:71:39:b1:cf:41:6e:40:31:de:3b:18:d7:b5:
         e7:14:b8:7a:76:55:91:d2:21:3e:0f:5e:c1:c7:4c:5d:7e:cc:
         31:f0:56:64:da:c4:ee:03:f0:ef:b0:42:66:ba:32:cc:1c:15:
         84:39:7b:57:3f:a8:f0:b0:71:72:96:bd:dc:cd:2c:a1:06:d8:
         66:90:5f:af:24:d4:c0:f1:42:21:bc:c6:c0:05:fb:8f:c0:e5:
         47:ce:0e:7b:ef:73:8d:bb:d5:c6:c1:6d:82:4d:43:ae:73:1b:
         67:b4:cd:c3:c3:b6:66:af:53:e1:32:1f:09:a4:ab:a5:b9:c6:
         a4:9c:1c:e7:b9:a8:48:83:3c:4a:a9:c1:27:73:99:9b:7d:08:
         fe:2d:06:de:57:31:46:3c:d5:87:b8:6a:a9:78:54:05:2d:35:
         c3:e7:0f:a7:34:37:c4:b3:7d:74:89:7f:93:59:8e:d7:d4:76:
         29:4c:eb:75:b0:5b
-----BEGIN CERTIFICATE-----
MIIE1jCCAz6gAwIBAgIBMjANBgkqhkiG9w0BAQsFADBtMQswCQYDVQQGEwJGUjEP
MA0GA1UECAwGRnJhbmNlMREwDwYDVQQHDAhHcmVub2JsZTEiMCAGA1UECgwZQmVs
bGVkb25uZSBDb21tdW5pY2F0aW9uczEWMBQGA1UEAwwNSmVoYW4gTW9ubmllcjAe
Fw0yMDEyMTUwODIyMjFaFw0zMDEyMTMwODIyMjFaMGYxCzAJBgNVBAYTAkZSMQ8w
DQYDVQQIDAZGcmFuY2UxETAPBgNVBAcMCEdyZW5vYmxlMSIwIAYDVQQKDBlCZWxs
ZWRvbm5lIENvbW11bmljYXRpb25zMQ8wDQYDVQQDDAZVc2VyIDEwggEiMA0GCSqG
SIb3DQEBAQUAA4IBDwAwggEKAoIBAQC3EtIEWiXD026zNCLYL1RLYtofGaUvYwfT
nAHM/n6kClTdJiOQcCyNmnaUuD4b8uoAf1bY35IV8QIhK82jBHhW5LvxUbFLGleh
Cbknv+7V7yXVVNmRpXy+h7Abmb3I/o+S/255h0sVmXb0jims+QA1UbbW4zK1Rlf0
GtPErnogl7I1PCkyZItM3Mc7DqZ+lNkO8codGf9LxismbMJH1L0Cv6wpJcE+262D
ABeeXKHIhaYuKPCueTenI1rernxlPyf6ZgMckBSAXluOhblB5K2cBKLsNT0XFx8l
enOLar/Lxp8SqTr6bVc4N3bCNg+cZqt2ieO9k0o1qgXF036YgonjAgMBAAGjggEG
MIIBAjAJBgNVHRMEAjAAMCwGCWCGSAGG+EIBDQQfFh1PcGVuU1NMIEdlbmVyYXRl
ZCBDZXJ0aWZpY2F0ZTAdBgNVHQ4EFgQUJwBUzGEejruG+jjC1WK3ri1PU6UwHwYD
VR0jBBgwFoAUjawORCzNIqz4Fw7ei2N5PffDwQ4wgYYGA1UdEQR/MH2CIHNpcDp1
c2VyXzFhbGlhczFAc2lwLmV4YW1wbGUub3JnghtzaXBzOnVzZXJfMUBzaXAuZXhh
bXBsZS5vcmeCGnNpcDp1c2VyXzFAc2lwLmV4YW1wbGUub3JngiBzaXA6dXNlcl8x
YWxpYXMyQHNpcC5leGFtcGxlLm9yZzANBgkqhkiG9w0BAQsFAAOCAYEAh48hbl7b
VqyBnQA8p+NQpdKHLIUlITn4wmUtIdm2tinVXO2Gc31Bgf7QcayiBCvtyr+XRPlb
Vq+Cgu3mBq9b9gqIRVeImLso2AvTI0AdsnDVXdeU7aB7LrL8PlOD5gQBHrpMaG+k
agvWBT+ZW6fJdeziyaaQtFKhNWa95Avq3KDdpQOt7H8kUKvmO8F0+mETwL95eURg
zKqpJDpYZrNBTKs0tB5wsHRPBQKSRwYEiXb/+/7wpzOQoDQol3vBAYavyRUKbclQ
N/Q9U1hxObHPQW5AMd47GNe15xS4enZVkdIhPg9ewcdMXX7MMfBWZNrE7gPw77BC
ZroyzBwVhDl7Vz+o8LBxcpa93M0soQbYZpBfryTUwPFCIbzGwAX7j8DlR84Oe+9z
jbvVxsFtgk1DrnMbZ7TNw8O2Zq9T4TIfCaSrpbnGpJwc57moSIM8SqnBJ3OZm30I
/i0G3lcxRjzVh7hqqXhUBS01w+cPpzQ3xLN9dIl/k1mO19R2KUzrdbBb
-----END CERTIFICATE-----
