Certificate:
    Data:
        Version: 3 (0x2)
        Serial Number: 48 (0x30)
        Signature Algorithm: sha256WithRSAEncryption
        Issuer: C=FR, ST=France, L=Grenoble, O=Belledonne Communications, CN=Jehan Monnier
        Validity
            Not Before: Dec 15 08:15:56 2020 GMT
            Not After : Dec 13 08:15:56 2030 GMT
        Subject: C=FR, ST=France, L=Grenoble, O=Belledonne Communications, CN=User 2
        Subject Public Key Info:
            Public Key Algorithm: rsaEncryption
                RSA Public-Key: (2048 bit)
                Modulus:
                    00:bc:c5:df:e2:d9:01:19:0f:77:89:3e:4f:ed:fa:
                    b2:ce:23:c5:f4:ff:9e:47:0d:3d:ce:58:6f:ef:f5:
                    bc:3a:01:ea:da:99:d6:5d:cd:80:87:1d:07:48:cb:
                    25:a2:82:6c:ee:0b:75:f6:f6:fa:a1:44:b8:24:72:
                    ff:5b:86:0b:ad:9a:88:11:4f:ae:33:b9:99:22:9c:
                    7b:8d:79:d6:96:53:4a:25:37:d9:7e:1d:b6:6d:08:
                    43:c8:22:26:fc:8c:56:ce:52:f8:8f:97:99:ac:9e:
                    95:7f:6f:98:8d:ce:08:6c:0a:ba:e9:97:e5:c4:33:
                    43:19:56:66:90:69:88:86:89:1d:5e:23:dd:b1:f9:
                    78:1d:33:4f:c0:83:0b:8c:4e:a8:05:ec:32:96:34:
                    ee:84:57:17:68:af:b7:94:4a:aa:2d:b5:32:20:38:
                    bd:d7:5e:4e:38:ec:69:41:6b:4a:30:09:96:07:f0:
                    71:51:75:69:97:dc:0e:ab:57:65:fc:bc:44:fe:97:
                    e8:43:a9:65:2b:85:1c:68:2f:41:91:00:c2:55:5d:
                    34:2d:50:03:d7:d1:b1:10:52:ba:d4:81:b7:29:cb:
                    8f:6c:8f:ab:6a:56:a6:b9:24:dc:97:38:db:49:0d:
                    1b:44:b9:74:0f:6e:38:49:6d:66:21:22:d7:83:83:
                    8a:6b
                Exponent: 65537 (0x10001)
        X509v3 extensions:
            X509v3 Basic Constraints: 
                CA:FALSE
            Netscape Comment: 
                OpenSSL Generated Certificate
            X509v3 Subject Key Identifier: 
                DD:73:70:E1:5F:2B:D7:FA:51:12:57:E9:28:BC:2D:37:07:D1:30:3B
            X509v3 Authority Key Identifier: 
                keyid:8D:AC:0E:44:2C:CD:22:AC:F8:17:0E:DE:8B:63:79:3D:F7:C3:C1:0E

            X509v3 Subject Alternative Name: 
                DNS:sip:user_2@sip.example.org, DNS:sips:user_2@sip.example.org
    Signature Algorithm: sha256WithRSAEncryption
         45:21:98:87:42:a2:5e:fa:88:00:2c:f0:4c:8f:d0:69:31:3a:
         11:69:e2:3c:10:05:90:37:b0:5b:3f:fc:9b:69:85:b9:72:53:
         eb:46:7b:a5:87:40:3b:2d:ec:9b:e9:96:52:5f:e8:f8:89:63:
         25:5e:03:56:57:d2:7e:56:ce:1a:74:12:24:4f:ae:2b:f3:f5:
         2e:1b:b4:37:fd:52:60:10:30:44:f9:c6:8c:0e:04:4d:a4:db:
         1f:c5:4b:67:7e:4f:cd:85:12:01:52:e7:25:a8:b9:ac:9a:e7:
         48:28:e2:ac:61:3c:17:88:e4:53:3b:0d:a7:09:38:94:5a:08:
         ec:79:64:7a:1f:a2:2c:d9:46:3b:2b:4e:51:16:38:cf:3a:d8:
         2a:ba:bc:68:50:a8:fa:29:30:b5:fa:a8:94:bd:17:df:6d:20:
         67:bc:5e:2e:20:22:7d:d3:03:03:72:f8:d1:1d:b8:8b:0d:9a:
         85:65:a5:0e:3d:7d:d3:bd:19:90:a9:87:b3:18:d3:dd:d1:61:
         59:22:6f:2c:3c:82:05:7d:cf:81:3e:74:5f:8b:03:55:68:41:
         c8:06:30:7f:64:6c:c5:ba:df:00:06:1c:07:a7:a5:4e:a9:6a:
         75:d1:f8:c7:53:86:8a:39:f0:82:85:bf:88:69:38:ae:d5:80:
         58:ca:a9:d6:84:e5:9a:5f:78:72:95:f2:39:cf:ee:ad:92:ca:
         b1:fe:ea:8a:ac:30:26:c2:cd:d2:14:21:49:1c:6e:07:3b:2a:
         d0:c8:d8:b2:16:ec:f7:62:12:29:ff:ce:c0:ad:9d:b8:6b:48:
         b7:1d:2e:6d:26:80:4e:86:7b:02:ec:3d:58:4c:75:c9:68:be:
         57:c3:00:58:6c:92:58:1f:4a:01:93:06:e1:ee:34:0c:22:51:
         17:7c:2f:9e:c9:1b:e9:1b:e2:36:97:43:db:2a:d8:78:74:0e:
         72:47:e5:7e:6c:66:d0:d9:0e:72:2f:81:92:22:07:92:e4:7a:
         6c:2d:19:01:c9:0f
-----BEGIN CERTIFICATE-----
MIIEjzCCAvegAwIBAgIBMDANBgkqhkiG9w0BAQsFADBtMQswCQYDVQQGEwJGUjEP
MA0GA1UECAwGRnJhbmNlMREwDwYDVQQHDAhHcmVub2JsZTEiMCAGA1UECgwZQmVs
bGVkb25uZSBDb21tdW5pY2F0aW9uczEWMBQGA1UEAwwNSmVoYW4gTW9ubmllcjAe
Fw0yMDEyMTUwODE1NTZaFw0zMDEyMTMwODE1NTZaMGYxCzAJBgNVBAYTAkZSMQ8w
DQYDVQQIDAZGcmFuY2UxETAPBgNVBAcMCEdyZW5vYmxlMSIwIAYDVQQKDBlCZWxs
ZWRvbm5lIENvbW11bmljYXRpb25zMQ8wDQYDVQQDDAZVc2VyIDIwggEiMA0GCSqG
SIb3DQEBAQUAA4IBDwAwggEKAoIBAQC8xd/i2QEZD3eJPk/t+rLOI8X0/55HDT3O
WG/v9bw6AeramdZdzYCHHQdIyyWigmzuC3X29vqhRLgkcv9bhgutmogRT64zuZki
nHuNedaWU0olN9l+HbZtCEPIIib8jFbOUviPl5msnpV/b5iNzghsCrrpl+XEM0MZ
VmaQaYiGiR1eI92x+XgdM0/AgwuMTqgF7DKWNO6EVxdor7eUSqottTIgOL3XXk44
7GlBa0owCZYH8HFRdWmX3A6rV2X8vET+l+hDqWUrhRxoL0GRAMJVXTQtUAPX0bEQ
UrrUgbcpy49sj6tqVqa5JNyXONtJDRtEuXQPbjhJbWYhIteDg4prAgMBAAGjgcAw
gb0wCQYDVR0TBAIwADAsBglghkgBhvhCAQ0EHxYdT3BlblNTTCBHZW5lcmF0ZWQg
Q2VydGlmaWNhdGUwHQYDVR0OBBYEFN1zcOFfK9f6URJX6Si8LTcH0TA7MB8GA1Ud
IwQYMBaAFI2sDkQszSKs+BcO3otjeT33w8EOMEIGA1UdEQQ7MDmCGnNpcDp1c2Vy
XzJAc2lwLmV4YW1wbGUub3JnghtzaXBzOnVzZXJfMkBzaXAuZXhhbXBsZS5vcmcw
DQYJKoZIhvcNAQELBQADggGBAEUhmIdCol76iAAs8EyP0GkxOhFp4jwQBZA3sFs/
/JtphblyU+tGe6WHQDst7JvpllJf6PiJYyVeA1ZX0n5Wzhp0EiRPrivz9S4btDf9
UmAQMET5xowOBE2k2x/FS2d+T82FEgFS5yWouaya50go4qxhPBeI5FM7DacJOJRa
COx5ZHofoizZRjsrTlEWOM862Cq6vGhQqPopMLX6qJS9F99tIGe8Xi4gIn3TAwNy
+NEduIsNmoVlpQ49fdO9GZCph7MY093RYVkibyw8ggV9z4E+dF+LA1VoQcgGMH9k
bMW63wAGHAenpU6panXR+MdThoo58IKFv4hpOK7VgFjKqdaE5ZpfeHKV8jnP7q2S
yrH+6oqsMCbCzdIUIUkcbgc7KtDI2LIW7PdiEin/zsCtnbhrSLcdLm0mgE6GewLs
PVhMdclovlfDAFhsklgfSgGTBuHuNAwiURd8L57JG+kb4jaXQ9sq2Hh0DnJH5X5s
ZtDZDnIvgZIiB5LkemwtGQHJDw==
-----END CERTIFICATE-----
