Certificate:
    Data:
        Version: 3 (0x2)
        Serial Number: 29 (0x1d)
        Signature Algorithm: sha256WithRSAEncryption
        Issuer: C=FR, ST=Some-State, L=Grenoble, O=Belledonne Communications, OU=LAB, CN=Jehan Monnier/emailAddress=jehan.monnier@belledonne-communications.com
        Validity
            Not Before: May 30 20:19:29 2020 GMT
            Not After : May 28 20:19:29 2030 GMT
        Subject: C=FR, ST=France, L=Grenoble, O=Belledonne Communications, CN=User 2
        Subject Public Key Info:
            Public Key Algorithm: rsaEncryption
                RSA Public-Key: (2048 bit)
                Modulus:
                    00:b1:fb:93:04:cd:f8:44:7c:09:7a:3a:df:22:87:
                    56:b2:e0:c6:27:34:d2:8d:95:5e:29:e2:44:5e:2e:
                    6b:84:77:03:f4:b3:6e:a9:38:6d:cc:89:ae:9f:ce:
                    b8:8b:70:02:24:7b:06:cf:aa:a7:33:be:ae:b0:72:
                    51:80:35:88:9a:e9:2a:bf:1f:46:b2:52:c4:88:0e:
                    c4:c8:7b:d0:c9:cd:d9:d8:0d:36:f6:64:5b:c1:3d:
                    a4:84:7a:d0:10:63:a0:70:b9:ec:c3:1e:50:05:f7:
                    0f:9c:85:cf:57:97:54:17:a1:6c:cd:74:fc:db:38:
                    3c:fc:14:38:68:19:14:30:a2:d2:f7:f1:5f:c3:7d:
                    a1:ee:67:dc:ce:85:c5:3b:1d:46:38:b3:4b:27:e2:
                    af:9e:3d:dc:cd:55:a2:9a:1e:1c:6c:a0:75:34:05:
                    0a:ca:d2:0a:09:16:a2:ab:fd:e7:52:f9:04:72:de:
                    00:5f:bf:3a:99:f7:b5:4f:78:23:a4:15:0e:5f:e8:
                    51:ec:fa:5b:1c:73:71:2d:85:52:f1:32:1f:8d:81:
                    d0:70:01:6b:52:db:1f:d2:6f:ed:44:0d:c0:22:df:
                    e1:0b:33:1e:50:d2:7c:b0:39:f2:18:7d:fd:58:bf:
                    b7:ba:b5:c9:4e:e8:d4:fa:0a:ef:73:20:45:4c:99:
                    6b:a3
                Exponent: 65537 (0x10001)
        X509v3 extensions:
            X509v3 Basic Constraints: 
                CA:FALSE
            X509v3 Key Usage: 
                Digital Signature, Non Repudiation, Key Encipherment
            X509v3 Subject Alternative Name: 
                DNS:sip:user_2@sip.example.org, DNS:sips:user_2@sip.example.org
    Signature Algorithm: sha256WithRSAEncryption
         2f:1e:56:e8:c1:c7:bc:72:9c:45:cb:ce:c6:5b:ee:77:5c:4d:
         f9:00:51:1b:9c:3d:20:d8:d5:1b:76:55:fa:28:89:90:37:90:
         6e:3d:58:c3:9c:a3:4b:fd:2a:45:bd:c3:10:51:11:7d:11:c4:
         d3:59:ce:9b:f8:db:01:0a:45:62:40:d6:43:9e:9b:1c:29:95:
         92:c3:3f:de:97:02:95:a6:28:b8:af:e8:bb:5a:4c:39:4d:de:
         f7:64:5e:c1:47:2a:d8:b4:79:c1:b0:15:3b:f9:15:92:4f:70:
         e2:d5:e3:bb:3b:e4:65:d2:54:0d:cc:92:4c:2b:f0:71:0d:b1:
         ba:09
-----BEGIN CERTIFICATE-----
MIIDejCCAuOgAwIBAgIBHTANBgkqhkiG9w0BAQsFADCBuzELMAkGA1UEBhMCRlIx
EzARBgNVBAgMClNvbWUtU3RhdGUxETAPBgNVBAcMCEdyZW5vYmxlMSIwIAYDVQQK
DBlCZWxsZWRvbm5lIENvbW11bmljYXRpb25zMQwwCgYDVQQLDANMQUIxFjAUBgNV
BAMMDUplaGFuIE1vbm5pZXIxOjA4BgkqhkiG9w0BCQEWK2plaGFuLm1vbm5pZXJA
YmVsbGVkb25uZS1jb21tdW5pY2F0aW9ucy5jb20wHhcNMjAwNTMwMjAxOTI5WhcN
MzAwNTI4MjAxOTI5WjBmMQswCQYDVQQGEwJGUjEPMA0GA1UECAwGRnJhbmNlMREw
DwYDVQQHDAhHcmVub2JsZTEiMCAGA1UECgwZQmVsbGVkb25uZSBDb21tdW5pY2F0
aW9uczEPMA0GA1UEAwwGVXNlciAyMIIBIjANBgkqhkiG9w0BAQEFAAOCAQ8AMIIB
CgKCAQEAsfuTBM34RHwJejrfIodWsuDGJzTSjZVeKeJEXi5rhHcD9LNuqThtzImu
n864i3ACJHsGz6qnM76usHJRgDWImukqvx9GslLEiA7EyHvQyc3Z2A029mRbwT2k
hHrQEGOgcLnswx5QBfcPnIXPV5dUF6FszXT82zg8/BQ4aBkUMKLS9/Ffw32h7mfc
zoXFOx1GOLNLJ+Kvnj3czVWimh4cbKB1NAUKytIKCRaiq/3nUvkEct4AX786mfe1
T3gjpBUOX+hR7PpbHHNxLYVS8TIfjYHQcAFrUtsf0m/tRA3AIt/hCzMeUNJ8sDny
GH39WL+3urXJTujU+grvcyBFTJlrowIDAQABo14wXDAJBgNVHRMEAjAAMAsGA1Ud
DwQEAwIF4DBCBgNVHREEOzA5ghpzaXA6dXNlcl8yQHNpcC5leGFtcGxlLm9yZ4Ib
c2lwczp1c2VyXzJAc2lwLmV4YW1wbGUub3JnMA0GCSqGSIb3DQEBCwUAA4GBAC8e
VujBx7xynEXLzsZb7ndcTfkAURucPSDY1Rt2VfooiZA3kG49WMOco0v9KkW9wxBR
EX0RxNNZzpv42wEKRWJA1kOemxwplZLDP96XApWmKLiv6LtaTDlN3vdkXsFHKti0
ecGwFTv5FZJPcOLV47s75GXSVA3Mkkwr8HENsboJ
-----END CERTIFICATE-----
