Certificate:
    Data:
        Version: 3 (0x2)
        Serial Number: 27 (0x1b)
        Signature Algorithm: sha256WithRSAEncryption
        Issuer: C=FR, ST=Some-State, L=Grenoble, O=Belledonne Communications, OU=LAB, CN=Jehan Monnier/emailAddress=jehan.monnier@belledonne-communications.com
        Validity
            Not Before: May 30 15:37:30 2020 GMT
            Not After : May 28 15:37:30 2030 GMT
        Subject: C=FR, ST=France, L=Grenoble, O=Belledonne Communications, CN=Jehan Monnier
        Subject Public Key Info:
            Public Key Algorithm: rsaEncryption
                RSA Public-Key: (2048 bit)
                Modulus:
                    00:c9:17:d9:fd:c7:93:23:c9:02:b1:c1:41:fe:2a:
                    15:c8:89:7c:d4:6a:78:6d:56:38:5f:78:8b:75:02:
                    97:b6:cb:77:d8:21:24:fe:cf:4b:e8:20:c6:f3:8d:
                    61:36:f6:22:17:67:18:ea:e2:2b:a9:fe:3f:76:da:
                    fa:fc:57:3c:4d:e6:ef:3c:6a:a4:97:c7:bc:5f:76:
                    d3:7f:ba:9e:fb:38:0b:4d:82:9d:c2:24:37:d1:04:
                    c4:b1:1c:32:89:42:83:dd:e7:f2:5c:8c:c3:fb:30:
                    1b:29:3c:c0:54:0f:dc:6d:3b:cd:38:f5:a1:64:fa:
                    e6:ad:24:d2:db:a9:9b:5b:01:b9:da:ea:88:e4:c6:
                    db:c7:bf:e8:84:c7:af:1c:02:20:b2:c7:e2:4f:5c:
                    53:bd:57:3b:dd:cb:1e:08:59:88:5e:e4:5e:bf:06:
                    4a:6d:a6:50:63:62:75:f1:9d:19:c7:5a:3f:1a:41:
                    00:84:34:5e:e6:ab:0a:7c:a2:12:0d:40:4e:31:04:
                    f5:ef:e9:41:db:6d:16:ba:8e:cf:17:f1:46:0e:e4:
                    07:ba:23:8d:96:e7:54:82:11:88:f4:43:aa:22:fd:
                    ac:73:f8:90:48:c1:80:79:7f:df:e0:aa:04:0c:7b:
                    12:75:08:cd:03:f0:9c:53:0c:d1:4c:c1:65:c7:17:
                    b7:a1
                Exponent: 65537 (0x10001)
        X509v3 extensions:
            X509v3 Basic Constraints: 
                CA:FALSE
            X509v3 Key Usage: 
                Digital Signature, Non Repudiation, Key Encipherment
            X509v3 Subject Alternative Name: 
                DNS:sip:user_1@sip.example.org
    Signature Algorithm: sha256WithRSAEncryption
         2a:7e:c3:f8:4b:82:51:c2:33:9a:cd:29:4f:5d:bb:05:d3:1a:
         40:f4:05:95:4e:bc:c8:d4:c6:7a:7b:1e:0f:34:59:e2:06:f1:
         3c:e2:a1:80:78:44:7a:6a:9d:8d:3a:24:23:17:fa:60:54:04:
         24:79:2d:e9:43:5d:b9:fd:3d:9e:95:d6:42:a7:d7:5f:47:83:
         b6:a8:6d:94:89:e8:39:de:3d:7f:8a:1b:06:17:cb:da:cb:c2:
         79:5f:69:bb:ba:39:b7:7c:80:5c:e7:7a:71:5e:3d:90:9b:5a:
         eb:b5:70:06:5d:c9:c2:36:a4:b3:15:ef:b0:bf:5d:a2:93:28:
         0c:77
-----BEGIN CERTIFICATE-----
MIIDZDCCAs2gAwIBAgIBGzANBgkqhkiG9w0BAQsFADCBuzELMAkGA1UEBhMCRlIx
EzARBgNVBAgMClNvbWUtU3RhdGUxETAPBgNVBAcMCEdyZW5vYmxlMSIwIAYDVQQK
DBlCZWxsZWRvbm5lIENvbW11bmljYXRpb25zMQwwCgYDVQQLDANMQUIxFjAUBgNV
BAMMDUplaGFuIE1vbm5pZXIxOjA4BgkqhkiG9w0BCQEWK2plaGFuLm1vbm5pZXJA
YmVsbGVkb25uZS1jb21tdW5pY2F0aW9ucy5jb20wHhcNMjAwNTMwMTUzNzMwWhcN
MzAwNTI4MTUzNzMwWjBtMQswCQYDVQQGEwJGUjEPMA0GA1UECAwGRnJhbmNlMREw
DwYDVQQHDAhHcmVub2JsZTEiMCAGA1UECgwZQmVsbGVkb25uZSBDb21tdW5pY2F0
aW9uczEWMBQGA1UEAwwNSmVoYW4gTW9ubmllcjCCASIwDQYJKoZIhvcNAQEBBQAD
ggEPADCCAQoCggEBAMkX2f3HkyPJArHBQf4qFciJfNRqeG1WOF94i3UCl7bLd9gh
JP7PS+ggxvONYTb2IhdnGOriK6n+P3ba+vxXPE3m7zxqpJfHvF9203+6nvs4C02C
ncIkN9EExLEcMolCg93n8lyMw/swGyk8wFQP3G07zTj1oWT65q0k0tupm1sBudrq
iOTG28e/6ITHrxwCILLH4k9cU71XO93LHghZiF7kXr8GSm2mUGNidfGdGcdaPxpB
AIQ0XuarCnyiEg1ATjEE9e/pQdttFrqOzxfxRg7kB7ojjZbnVIIRiPRDqiL9rHP4
kEjBgHl/3+CqBAx7EnUIzQPwnFMM0UzBZccXt6ECAwEAAaNBMD8wCQYDVR0TBAIw
ADALBgNVHQ8EBAMCBeAwJQYDVR0RBB4wHIIac2lwOnVzZXJfMUBzaXAuZXhhbXBs
ZS5vcmcwDQYJKoZIhvcNAQELBQADgYEAKn7D+EuCUcIzms0pT127BdMaQPQFlU68
yNTGenseDzRZ4gbxPOKhgHhEemqdjTokIxf6YFQEJHkt6UNduf09npXWQqfXX0eD
tqhtlInoOd49f4obBhfL2svCeV9pu7o5t3yAXOd6cV49kJta67VwBl3JwjaksxXv
sL9dopMoDHc=
-----END CERTIFICATE-----
